
build/tp3_neon_macros:     file format elf64-littleaarch64


Disassembly of section .init:

0000000000400280 <_init>:
  400280:	d503201f 	nop
  400284:	a9bf7bfd 	stp	x29, x30, [sp, #-16]!
  400288:	910003fd 	mov	x29, sp
  40028c:	9400027e 	bl	400c84 <call_weak_fn>
  400290:	a8c17bfd 	ldp	x29, x30, [sp], #16
  400294:	d65f03c0 	ret

Disassembly of section .plt:

00000000004002a0 <.plt>:
  4002a0:	900004b0 	adrp	x16, 494000 <.got.plt+0x18>
  4002a4:	f9400211 	ldr	x17, [x16]
  4002a8:	91000210 	add	x16, x16, #0x0
  4002ac:	d61f0220 	br	x17
  4002b0:	900004b0 	adrp	x16, 494000 <.got.plt+0x18>
  4002b4:	f9400611 	ldr	x17, [x16, #8]
  4002b8:	91002210 	add	x16, x16, #0x8
  4002bc:	d61f0220 	br	x17
  4002c0:	900004b0 	adrp	x16, 494000 <.got.plt+0x18>
  4002c4:	f9400a11 	ldr	x17, [x16, #16]
  4002c8:	91004210 	add	x16, x16, #0x10
  4002cc:	d61f0220 	br	x17
  4002d0:	900004b0 	adrp	x16, 494000 <.got.plt+0x18>
  4002d4:	f9400e11 	ldr	x17, [x16, #24]
  4002d8:	91006210 	add	x16, x16, #0x18
  4002dc:	d61f0220 	br	x17
  4002e0:	900004b0 	adrp	x16, 494000 <.got.plt+0x18>
  4002e4:	f9401211 	ldr	x17, [x16, #32]
  4002e8:	91008210 	add	x16, x16, #0x20
  4002ec:	d61f0220 	br	x17
  4002f0:	900004b0 	adrp	x16, 494000 <.got.plt+0x18>
  4002f4:	f9401611 	ldr	x17, [x16, #40]
  4002f8:	9100a210 	add	x16, x16, #0x28
  4002fc:	d61f0220 	br	x17
  400300:	900004b0 	adrp	x16, 494000 <.got.plt+0x18>
  400304:	f9401a11 	ldr	x17, [x16, #48]
  400308:	9100c210 	add	x16, x16, #0x30
  40030c:	d61f0220 	br	x17

Disassembly of section .text:

0000000000400340 <abort>:
  400340:	a9ab7bfd 	stp	x29, x30, [sp, #-336]!
  400344:	f0000480 	adrp	x0, 493000 <tunable_list+0x528>
  400348:	910003fd 	mov	x29, sp
  40034c:	a90153f3 	stp	x19, x20, [sp, #16]
  400350:	d00004b3 	adrp	x19, 496000 <_IO_strn_jumps+0x88>
  400354:	d53bd054 	mrs	x20, tpidr_el0
  400358:	f90013f5 	str	x21, [sp, #32]
  40035c:	91280275 	add	x21, x19, #0xa00
  400360:	f945f800 	ldr	x0, [x0, #3056]
  400364:	d11f0294 	sub	x20, x20, #0x7c0
  400368:	f94006a1 	ldr	x1, [x21, #8]
  40036c:	f9400002 	ldr	x2, [x0]
  400370:	f900a7e2 	str	x2, [sp, #328]
  400374:	d2800002 	mov	x2, #0x0                   	// #0
  400378:	eb14003f 	cmp	x1, x20
  40037c:	54000140 	b.eq	4003a4 <abort+0x64>  // b.none
  400380:	aa1503e2 	mov	x2, x21
  400384:	52800021 	mov	w1, #0x1                   	// #1
  400388:	52800000 	mov	w0, #0x0                   	// #0
  40038c:	94014cfd 	bl	453780 <__aarch64_cas4_acq>
  400390:	34000060 	cbz	w0, 40039c <abort+0x5c>
  400394:	aa1503e0 	mov	x0, x21
  400398:	94003b2a 	bl	40f040 <__lll_lock_wait_private>
  40039c:	91280260 	add	x0, x19, #0xa00
  4003a0:	f9000414 	str	x20, [x0, #8]
  4003a4:	91280263 	add	x3, x19, #0xa00
  4003a8:	b9400460 	ldr	w0, [x3, #4]
  4003ac:	b9401061 	ldr	w1, [x3, #16]
  4003b0:	11000400 	add	w0, w0, #0x1
  4003b4:	b9000460 	str	w0, [x3, #4]
  4003b8:	35000101 	cbnz	w1, 4003d8 <abort+0x98>
  4003bc:	d2800404 	mov	x4, #0x20                  	// #32
  4003c0:	52800020 	mov	w0, #0x1                   	// #1
  4003c4:	9100c3e1 	add	x1, sp, #0x30
  4003c8:	d2800002 	mov	x2, #0x0                   	// #0
  4003cc:	b9001060 	str	w0, [x3, #16]
  4003d0:	f9001be4 	str	x4, [sp, #48]
  4003d4:	940016ab 	bl	405e80 <__sigprocmask>
  4003d8:	91280275 	add	x21, x19, #0xa00
  4003dc:	b94012a0 	ldr	w0, [x21, #16]
  4003e0:	7100041f 	cmp	w0, #0x1
  4003e4:	54000421 	b.ne	400468 <abort+0x128>  // b.any
  4003e8:	b94006a0 	ldr	w0, [x21, #4]
  4003ec:	b90012bf 	str	wzr, [x21, #16]
  4003f0:	51000400 	sub	w0, w0, #0x1
  4003f4:	b90006a0 	str	w0, [x21, #4]
  4003f8:	35000100 	cbnz	w0, 400418 <abort+0xd8>
  4003fc:	aa1503e1 	mov	x1, x21
  400400:	f90006bf 	str	xzr, [x21, #8]
  400404:	94014d73 	bl	4539d0 <__aarch64_swp4_rel>
  400408:	7100041f 	cmp	w0, #0x1
  40040c:	5400006d 	b.le	400418 <abort+0xd8>
  400410:	aa1503e0 	mov	x0, x21
  400414:	94003b4c 	bl	40f144 <__lll_lock_wake_private>
  400418:	91280275 	add	x21, x19, #0xa00
  40041c:	528000c0 	mov	w0, #0x6                   	// #6
  400420:	94001684 	bl	405e30 <raise>
  400424:	f94006a0 	ldr	x0, [x21, #8]
  400428:	eb00029f 	cmp	x20, x0
  40042c:	54000140 	b.eq	400454 <abort+0x114>  // b.none
  400430:	aa1503e2 	mov	x2, x21
  400434:	52800021 	mov	w1, #0x1                   	// #1
  400438:	52800000 	mov	w0, #0x0                   	// #0
  40043c:	94014cd1 	bl	453780 <__aarch64_cas4_acq>
  400440:	34000060 	cbz	w0, 40044c <abort+0x10c>
  400444:	aa1503e0 	mov	x0, x21
  400448:	94003afe 	bl	40f040 <__lll_lock_wait_private>
  40044c:	91280260 	add	x0, x19, #0xa00
  400450:	f9000414 	str	x20, [x0, #8]
  400454:	91280261 	add	x1, x19, #0xa00
  400458:	b9400420 	ldr	w0, [x1, #4]
  40045c:	11000400 	add	w0, w0, #0x1
  400460:	b9000420 	str	w0, [x1, #4]
  400464:	14000003 	b	400470 <abort+0x130>
  400468:	7100081f 	cmp	w0, #0x2
  40046c:	540001e1 	b.ne	4004a8 <abort+0x168>  // b.any
  400470:	9102c3e3 	add	x3, sp, #0xb0
  400474:	91280264 	add	x4, x19, #0xa00
  400478:	52800065 	mov	w5, #0x3                   	// #3
  40047c:	aa0303e0 	mov	x0, x3
  400480:	d2801302 	mov	x2, #0x98                  	// #152
  400484:	52800001 	mov	w1, #0x0                   	// #0
  400488:	b9001085 	str	w5, [x4, #16]
  40048c:	97ffff91 	bl	4002d0 <.plt+0x30>
  400490:	92800003 	mov	x3, #0xffffffffffffffff    	// #-1
  400494:	aa0003e1 	mov	x1, x0
  400498:	d2800002 	mov	x2, #0x0                   	// #0
  40049c:	528000c0 	mov	w0, #0x6                   	// #6
  4004a0:	f9005fe3 	str	x3, [sp, #184]
  4004a4:	9400aa2f 	bl	42ad60 <__sigaction>
  4004a8:	91280261 	add	x1, x19, #0xa00
  4004ac:	b9401020 	ldr	w0, [x1, #16]
  4004b0:	71000c1f 	cmp	w0, #0x3
  4004b4:	540000a1 	b.ne	4004c8 <abort+0x188>  // b.any
  4004b8:	52800082 	mov	w2, #0x4                   	// #4
  4004bc:	528000c0 	mov	w0, #0x6                   	// #6
  4004c0:	b9001022 	str	w2, [x1, #16]
  4004c4:	9400165b 	bl	405e30 <raise>
  4004c8:	91280260 	add	x0, x19, #0xa00
  4004cc:	b9401001 	ldr	w1, [x0, #16]
  4004d0:	7100103f 	cmp	w1, #0x4
  4004d4:	54000081 	b.ne	4004e4 <abort+0x1a4>  // b.any
  4004d8:	528000a1 	mov	w1, #0x5                   	// #5
  4004dc:	b9001001 	str	w1, [x0, #16]
  4004e0:	d4207d00 	brk	#0x3e8
  4004e4:	91280273 	add	x19, x19, #0xa00
  4004e8:	b9401260 	ldr	w0, [x19, #16]
  4004ec:	7100141f 	cmp	w0, #0x5
  4004f0:	540000a1 	b.ne	400504 <abort+0x1c4>  // b.any
  4004f4:	528000c1 	mov	w1, #0x6                   	// #6
  4004f8:	52800fe0 	mov	w0, #0x7f                  	// #127
  4004fc:	b9001261 	str	w1, [x19, #16]
  400500:	94006534 	bl	4199d0 <_exit>
  400504:	d4207d00 	brk	#0x3e8
  400508:	17ffffff 	b	400504 <abort+0x1c4>

000000000040050c <_dl_start>:
  40050c:	a9bf7bfd 	stp	x29, x30, [sp, #-16]!
  400510:	910003fd 	mov	x29, sp
  400514:	97ffff8b 	bl	400340 <abort>
  400518:	d503201f 	nop
  40051c:	d503201f 	nop

0000000000400520 <main>:
  400520:	d104c3ff 	sub	sp, sp, #0x130
  400524:	f0000481 	adrp	x1, 493000 <tunable_list+0x528>
  400528:	b00002c0 	adrp	x0, 459000 <free_modules_db>
  40052c:	91262000 	add	x0, x0, #0x988
  400530:	a90d7bfd 	stp	x29, x30, [sp, #208]
  400534:	910343fd 	add	x29, sp, #0xd0
  400538:	f945f821 	ldr	x1, [x1, #3056]
  40053c:	a90e53f3 	stp	x19, x20, [sp, #224]
  400540:	d299bdf4 	mov	x20, #0xcdef                	// #52719
  400544:	a90f5bf5 	stp	x21, x22, [sp, #240]
  400548:	f2b13574 	movk	x20, #0x89ab, lsl #16
  40054c:	f2c8acf4 	movk	x20, #0x4567, lsl #32
  400550:	a91063f7 	stp	x23, x24, [sp, #256]
  400554:	9100a3f8 	add	x24, sp, #0x28
  400558:	f2e02474 	movk	x20, #0x123, lsl #48
  40055c:	a9116bf9 	stp	x25, x26, [sp, #272]
  400560:	910063f9 	add	x25, sp, #0x18
  400564:	9100e3fa 	add	x26, sp, #0x38
  400568:	f90093fb 	str	x27, [sp, #288]
  40056c:	910223f3 	add	x19, sp, #0x88
  400570:	9102a3f5 	add	x21, sp, #0xa8
  400574:	9101a3f6 	add	x22, sp, #0x68
  400578:	f9400022 	ldr	x2, [x1]
  40057c:	f90067e2 	str	x2, [sp, #200]
  400580:	d2800002 	mov	x2, #0x0                   	// #0
  400584:	910123f7 	add	x23, sp, #0x48
  400588:	94001d9a 	bl	407bf0 <_IO_puts>
  40058c:	b00002c0 	adrp	x0, 459000 <free_modules_db>
  400590:	91270000 	add	x0, x0, #0x9c0
  400594:	94001d97 	bl	407bf0 <_IO_puts>
  400598:	a902ffff 	stp	xzr, xzr, [sp, #40]
  40059c:	d2955543 	mov	x3, #0xaaaa                	// #43690
  4005a0:	d2999981 	mov	x1, #0xcccc                	// #52428
  4005a4:	d28acf02 	mov	x2, #0x5678                	// #22136
  4005a8:	f2b55543 	movk	x3, #0xaaaa, lsl #16
  4005ac:	f2b99981 	movk	x1, #0xcccc, lsl #16
  4005b0:	f2a24682 	movk	x2, #0x1234, lsl #16
  4005b4:	f2d77763 	movk	x3, #0xbbbb, lsl #32
  4005b8:	f2dbbba1 	movk	x1, #0xdddd, lsl #32
  4005bc:	f2d77762 	movk	x2, #0xbbbb, lsl #32
  4005c0:	f2f77763 	movk	x3, #0xbbbb, lsl #48
  4005c4:	f2fbbba1 	movk	x1, #0xdddd, lsl #48
  4005c8:	f2f77762 	movk	x2, #0xbbbb, lsl #48
  4005cc:	b00002c0 	adrp	x0, 459000 <free_modules_db>
  4005d0:	91280000 	add	x0, x0, #0xa00
  4005d4:	a90187e3 	stp	x3, x1, [sp, #24]
  4005d8:	a90387e2 	stp	x2, x1, [sp, #56]
  4005dc:	94001d85 	bl	407bf0 <_IO_puts>
  4005e0:	528acf00 	mov	w0, #0x5678                	// #22136
  4005e4:	aa1803e2 	mov	x2, x24
  4005e8:	aa1903e1 	mov	x1, x25
  4005ec:	72a24680 	movk	w0, #0x1234, lsl #16
  4005f0:	940001e9 	bl	400d94 <ex1_move_w_to_low_u32>
  4005f4:	aa1803e1 	mov	x1, x24
  4005f8:	aa1a03e2 	mov	x2, x26
  4005fc:	b00002c0 	adrp	x0, 459000 <free_modules_db>
  400600:	9128a000 	add	x0, x0, #0xa28
  400604:	9400022b 	bl	400eb0 <pass_u32x4>
  400608:	a902ffff 	stp	xzr, xzr, [sp, #40]
  40060c:	b201ebe1 	mov	x1, #0xbbbbbbbbbbbbbbbb    	// #-4919131752989213765
  400610:	b201f3e2 	mov	x2, #0xaaaaaaaaaaaaaaaa    	// #-6148914691236517206
  400614:	b00002c0 	adrp	x0, 459000 <free_modules_db>
  400618:	91296000 	add	x0, x0, #0xa58
  40061c:	a90187e2 	stp	x2, x1, [sp, #24]
  400620:	a90387f4 	stp	x20, x1, [sp, #56]
  400624:	94001d73 	bl	407bf0 <_IO_puts>
  400628:	aa1803e2 	mov	x2, x24
  40062c:	aa1903e1 	mov	x1, x25
  400630:	aa1403e0 	mov	x0, x20
  400634:	940001dc 	bl	400da4 <ex2_move_x_to_low_u64>
  400638:	aa1803e1 	mov	x1, x24
  40063c:	aa1a03e2 	mov	x2, x26
  400640:	b00002c0 	adrp	x0, 459000 <free_modules_db>
  400644:	912a2000 	add	x0, x0, #0xa88
  400648:	9400029a 	bl	4010b0 <pass_u64x2>
  40064c:	a90affff 	stp	xzr, xzr, [sp, #168]
  400650:	d2801fe2 	mov	x2, #0xff                  	// #255
  400654:	d2800003 	mov	x3, #0x0                   	// #0
  400658:	b00002c0 	adrp	x0, 459000 <free_modules_db>
  40065c:	912ac000 	add	x0, x0, #0xab0
  400660:	a9088fe2 	stp	x2, x3, [sp, #136]
  400664:	94001d63 	bl	407bf0 <_IO_puts>
  400668:	aa1303e0 	mov	x0, x19
  40066c:	940001d2 	bl	400db4 <ex3_zero_v0>
  400670:	aa1303e1 	mov	x1, x19
  400674:	aa1503e2 	mov	x2, x21
  400678:	d2800203 	mov	x3, #0x10                  	// #16
  40067c:	b00002c0 	adrp	x0, 459000 <free_modules_db>
  400680:	912b2000 	add	x0, x0, #0xac8
  400684:	9400023b 	bl	400f70 <pass_bytes>
  400688:	6f000400 	mvni	v0.4s, #0x0
  40068c:	b00002c0 	adrp	x0, 459000 <free_modules_db>
  400690:	912ba000 	add	x0, x0, #0xae8
  400694:	a908ffff 	stp	xzr, xzr, [sp, #136]
  400698:	3c8a83e0 	stur	q0, [sp, #168]
  40069c:	94001d55 	bl	407bf0 <_IO_puts>
  4006a0:	aa1303e0 	mov	x0, x19
  4006a4:	940001c8 	bl	400dc4 <ex4_fill_ones_v0>
  4006a8:	aa1503e2 	mov	x2, x21
  4006ac:	aa1303e1 	mov	x1, x19
  4006b0:	d2800203 	mov	x3, #0x10                  	// #16
  4006b4:	b00002c0 	adrp	x0, 459000 <free_modules_db>
  4006b8:	912c4000 	add	x0, x0, #0xb10
  4006bc:	9400022d 	bl	400f70 <pass_bytes>
  4006c0:	b00002c1 	adrp	x1, 459000 <free_modules_db>
  4006c4:	913d4021 	add	x1, x1, #0xf50
  4006c8:	b00002c0 	adrp	x0, 459000 <free_modules_db>
  4006cc:	912cc000 	add	x0, x0, #0xb30
  4006d0:	a90affff 	stp	xzr, xzr, [sp, #168]
  4006d4:	a9400c22 	ldp	x2, x3, [x1]
  4006d8:	a9068fe2 	stp	x2, x3, [sp, #104]
  4006dc:	a9410c22 	ldp	x2, x3, [x1, #16]
  4006e0:	a9088fe2 	stp	x2, x3, [sp, #136]
  4006e4:	94001d43 	bl	407bf0 <_IO_puts>
  4006e8:	aa1503e1 	mov	x1, x21
  4006ec:	aa1603e0 	mov	x0, x22
  4006f0:	940001b8 	bl	400dd0 <ex5_shuffle_bytes>
  4006f4:	aa1303e2 	mov	x2, x19
  4006f8:	aa1503e1 	mov	x1, x21
  4006fc:	d2800203 	mov	x3, #0x10                  	// #16
  400700:	b00002c0 	adrp	x0, 459000 <free_modules_db>
  400704:	912da000 	add	x0, x0, #0xb68
  400708:	9400021a 	bl	400f70 <pass_bytes>
  40070c:	d2822221 	mov	x1, #0x1111                	// #4369
  400710:	d2866663 	mov	x3, #0x3333                	// #13107
  400714:	d297dde2 	mov	x2, #0xbeef                	// #48879
  400718:	f2a22221 	movk	x1, #0x1111, lsl #16
  40071c:	f2a66663 	movk	x3, #0x3333, lsl #16
  400720:	f2bbd5a2 	movk	x2, #0xdead, lsl #16
  400724:	f2c44441 	movk	x1, #0x2222, lsl #32
  400728:	f2c88883 	movk	x3, #0x4444, lsl #32
  40072c:	f2c88882 	movk	x2, #0x4444, lsl #32
  400730:	f2e88883 	movk	x3, #0x4444, lsl #48
  400734:	f2e44441 	movk	x1, #0x2222, lsl #48
  400738:	f2e88882 	movk	x2, #0x4444, lsl #48
  40073c:	b00002c0 	adrp	x0, 459000 <free_modules_db>
  400740:	912e2000 	add	x0, x0, #0xb88
  400744:	a9018fe1 	stp	x1, x3, [sp, #24]
  400748:	a902ffff 	stp	xzr, xzr, [sp, #40]
  40074c:	a9038be1 	stp	x1, x2, [sp, #56]
  400750:	94001d28 	bl	407bf0 <_IO_puts>
  400754:	5297dde0 	mov	w0, #0xbeef                	// #48879
  400758:	aa1803e2 	mov	x2, x24
  40075c:	aa1903e1 	mov	x1, x25
  400760:	72bbd5a0 	movk	w0, #0xdead, lsl #16
  400764:	940001a2 	bl	400dec <ex6_insert_word_lane2>
  400768:	aa1a03e2 	mov	x2, x26
  40076c:	aa1803e1 	mov	x1, x24
  400770:	b00002c0 	adrp	x0, 459000 <free_modules_db>
  400774:	912ee000 	add	x0, x0, #0xbb8
  400778:	940001ce 	bl	400eb0 <pass_u32x4>
  40077c:	a902ffff 	stp	xzr, xzr, [sp, #40]
  400780:	d2800023 	mov	x3, #0x1                   	// #1
  400784:	f2e10003 	movk	x3, #0x800, lsl #48
  400788:	d2800064 	mov	x4, #0x3                   	// #3
  40078c:	d2800c02 	mov	x2, #0x60                  	// #96
  400790:	d2800401 	mov	x1, #0x20                  	// #32
  400794:	b00002c0 	adrp	x0, 459000 <free_modules_db>
  400798:	912fa000 	add	x0, x0, #0xbe8
  40079c:	a9018fe4 	stp	x4, x3, [sp, #24]
  4007a0:	a90387e2 	stp	x2, x1, [sp, #56]
  4007a4:	94001d13 	bl	407bf0 <_IO_puts>
  4007a8:	aa1803e1 	mov	x1, x24
  4007ac:	aa1903e0 	mov	x0, x25
  4007b0:	94000193 	bl	400dfc <ex7_shift_left_2d_by_5>
  4007b4:	aa1a03e2 	mov	x2, x26
  4007b8:	aa1803e1 	mov	x1, x24
  4007bc:	b00002c0 	adrp	x0, 459000 <free_modules_db>
  4007c0:	9130a000 	add	x0, x0, #0xc28
  4007c4:	9400023b 	bl	4010b0 <pass_u64x2>
  4007c8:	a908ffff 	stp	xzr, xzr, [sp, #136]
  4007cc:	52801e23 	mov	w3, #0xf1                  	// #241
  4007d0:	52801e02 	mov	w2, #0xf0                  	// #240
  4007d4:	52800021 	mov	w1, #0x1                   	// #1
  4007d8:	d2800020 	mov	x0, #0x1                   	// #1
  4007dc:	d503201f 	nop
  4007e0:	8b0002e9 	add	x9, x23, x0
  4007e4:	8b0002c7 	add	x7, x22, x0
  4007e8:	8b0002a5 	add	x5, x21, x0
  4007ec:	11003428 	add	w8, w1, #0xd
  4007f0:	51001c46 	sub	w6, w2, #0x7
  4007f4:	11001864 	add	w4, w3, #0x6
  4007f8:	91000400 	add	x0, x0, #0x1
  4007fc:	381ff121 	sturb	w1, [x9, #-1]
  400800:	381ff0e2 	sturb	w2, [x7, #-1]
  400804:	12001d01 	and	w1, w8, #0xff
  400808:	381ff0a3 	sturb	w3, [x5, #-1]
  40080c:	12001cc2 	and	w2, w6, #0xff
  400810:	12001c83 	and	w3, w4, #0xff
  400814:	f100441f 	cmp	x0, #0x11
  400818:	54fffe41 	b.ne	4007e0 <main+0x2c0>  // b.any
  40081c:	b00002c0 	adrp	x0, 459000 <free_modules_db>
  400820:	91312000 	add	x0, x0, #0xc48
  400824:	94001cf3 	bl	407bf0 <_IO_puts>
  400828:	5280001b 	mov	w27, #0x0                   	// #0
  40082c:	aa1303e2 	mov	x2, x19
  400830:	aa1603e1 	mov	x1, x22
  400834:	aa1703e0 	mov	x0, x23
  400838:	94000175 	bl	400e0c <ex8_add_u8x16>
  40083c:	aa1503e2 	mov	x2, x21
  400840:	aa1303e1 	mov	x1, x19
  400844:	d2800203 	mov	x3, #0x10                  	// #16
  400848:	b00002c0 	adrp	x0, 459000 <free_modules_db>
  40084c:	9131c000 	add	x0, x0, #0xc70
  400850:	940001c8 	bl	400f70 <pass_bytes>
  400854:	d2800026 	mov	x6, #0x1                   	// #1
  400858:	d2800c85 	mov	x5, #0x64                  	// #100
  40085c:	d28000a4 	mov	x4, #0x5                   	// #5
  400860:	d2800123 	mov	x3, #0x9                   	// #9
  400864:	f2a00046 	movk	x6, #0x2, lsl #16
  400868:	f2a01905 	movk	x5, #0xc8, lsl #16
  40086c:	f2a000c4 	movk	x4, #0x6, lsl #16
  400870:	f2a00143 	movk	x3, #0xa, lsl #16
  400874:	f2c00066 	movk	x6, #0x3, lsl #32
  400878:	f2c02585 	movk	x5, #0x12c, lsl #32
  40087c:	f2c000e4 	movk	x4, #0x7, lsl #32
  400880:	f2c00163 	movk	x3, #0xb, lsl #32
  400884:	f2e00086 	movk	x6, #0x4, lsl #48
  400888:	f2e03205 	movk	x5, #0x190, lsl #48
  40088c:	f2e00104 	movk	x4, #0x8, lsl #48
  400890:	f2e00183 	movk	x3, #0xc, lsl #48
  400894:	d2800000 	mov	x0, #0x0                   	// #0
  400898:	528000a1 	mov	w1, #0x5                   	// #5
  40089c:	52800022 	mov	w2, #0x1                   	// #1
  4008a0:	a90297e6 	stp	x6, x5, [sp, #40]
  4008a4:	a9038fe4 	stp	x4, x3, [sp, #56]
  4008a8:	14000006 	b	4008c0 <main+0x3a0>
  4008ac:	8b000302 	add	x2, x24, x0
  4008b0:	8b000341 	add	x1, x26, x0
  4008b4:	91000800 	add	x0, x0, #0x2
  4008b8:	79400442 	ldrh	w2, [x2, #2]
  4008bc:	79400421 	ldrh	w1, [x1, #2]
  4008c0:	1b016c5b 	madd	w27, w2, w1, w27
  4008c4:	f100381f 	cmp	x0, #0xe
  4008c8:	54ffff21 	b.ne	4008ac <main+0x38c>  // b.any
  4008cc:	b00002c0 	adrp	x0, 459000 <free_modules_db>
  4008d0:	91326000 	add	x0, x0, #0xc98
  4008d4:	94001cc7 	bl	407bf0 <_IO_puts>
  4008d8:	d00004b4 	adrp	x20, 496000 <_IO_strn_jumps+0x88>
  4008dc:	aa1a03e1 	mov	x1, x26
  4008e0:	aa1803e0 	mov	x0, x24
  4008e4:	9400014f 	bl	400e20 <ex9_dot_u16x8>
  4008e8:	2a0003e3 	mov	w3, w0
  4008ec:	6b00037f 	cmp	w27, w0
  4008f0:	540013a0 	b.eq	400b64 <main+0x644>  // b.none
  4008f4:	2a1b03e4 	mov	w4, w27
  4008f8:	b00002c2 	adrp	x2, 459000 <free_modules_db>
  4008fc:	b00002c1 	adrp	x1, 459000 <free_modules_db>
  400900:	91332042 	add	x2, x2, #0xcc8
  400904:	91340021 	add	x1, x1, #0xd00
  400908:	52800020 	mov	w0, #0x1                   	// #1
  40090c:	940070b9 	bl	41cbf0 <___printf_chk>
  400910:	b9406280 	ldr	w0, [x20, #96]
  400914:	11000400 	add	w0, w0, #0x1
  400918:	b9006280 	str	w0, [x20, #96]
  40091c:	1e20d001 	fmov	s1, #2.750000000000000000e+00
  400920:	1e2e9000 	fmov	s0, #1.250000000000000000e+00
  400924:	d2b84441 	mov	x1, #0xc2220000            	// #3257008128
  400928:	d2a80602 	mov	x2, #0x40300000            	// #1076887552
  40092c:	f2e7ec01 	movk	x1, #0x3f60, lsl #48
  400930:	1e212800 	fadd	s0, s0, s1
  400934:	d2800080 	mov	x0, #0x4                   	// #4
  400938:	f2e80002 	movk	x2, #0x4000, lsl #48
  40093c:	a90187e2 	stp	x2, x1, [sp, #24]
  400940:	8b000341 	add	x1, x26, x0
  400944:	d2a7f404 	mov	x4, #0x3fa00000            	// #1067450368
  400948:	d2a85903 	mov	x3, #0x42c80000            	// #1120403456
  40094c:	f2f80404 	movk	x4, #0xc020, lsl #48
  400950:	f2e7c003 	movk	x3, #0x3e00, lsl #48
  400954:	91001000 	add	x0, x0, #0x4
  400958:	bc1fc020 	stur	s0, [x1, #-4]
  40095c:	910023fb 	add	x27, sp, #0x8
  400960:	a9008fe4 	stp	x4, x3, [sp, #8]
  400964:	a902ffff 	stp	xzr, xzr, [sp, #40]
  400968:	f100501f 	cmp	x0, #0x14
  40096c:	54000160 	b.eq	400998 <main+0x478>  // b.none
  400970:	8b000321 	add	x1, x25, x0
  400974:	8b000362 	add	x2, x27, x0
  400978:	bc5fc021 	ldur	s1, [x1, #-4]
  40097c:	8b000341 	add	x1, x26, x0
  400980:	bc5fc040 	ldur	s0, [x2, #-4]
  400984:	91001000 	add	x0, x0, #0x4
  400988:	1e212800 	fadd	s0, s0, s1
  40098c:	bc1fc020 	stur	s0, [x1, #-4]
  400990:	f100501f 	cmp	x0, #0x14
  400994:	54fffee1 	b.ne	400970 <main+0x450>  // b.any
  400998:	b00002c0 	adrp	x0, 459000 <free_modules_db>
  40099c:	91350000 	add	x0, x0, #0xd40
  4009a0:	94001c94 	bl	407bf0 <_IO_puts>
  4009a4:	aa1903e1 	mov	x1, x25
  4009a8:	aa1b03e0 	mov	x0, x27
  4009ac:	aa1803e2 	mov	x2, x24
  4009b0:	94000124 	bl	400e40 <ex10_add_f32x4>
  4009b4:	d2800021 	mov	x1, #0x1                   	// #1
  4009b8:	5298b580 	mov	w0, #0xc5ac                	// #50604
  4009bc:	2a0103e3 	mov	w3, w1
  4009c0:	72a6e4e0 	movk	w0, #0x3727, lsl #16
  4009c4:	1e270002 	fmov	s2, w0
  4009c8:	d37ef420 	lsl	x0, x1, #2
  4009cc:	8b000302 	add	x2, x24, x0
  4009d0:	8b000340 	add	x0, x26, x0
  4009d4:	bc5fc040 	ldur	s0, [x2, #-4]
  4009d8:	bc5fc001 	ldur	s1, [x0, #-4]
  4009dc:	7ea1d400 	fabd	s0, s0, s1
  4009e0:	1e222010 	fcmpe	s0, s2
  4009e4:	54000bcc 	b.gt	400b5c <main+0x63c>
  4009e8:	91000421 	add	x1, x1, #0x1
  4009ec:	f100143f 	cmp	x1, #0x5
  4009f0:	54fffec1 	b.ne	4009c8 <main+0x4a8>  // b.any
  4009f4:	34000c83 	cbz	w3, 400b84 <main+0x664>
  4009f8:	2d4507e0 	ldp	s0, s1, [sp, #40]
  4009fc:	b00002c2 	adrp	x2, 459000 <free_modules_db>
  400a00:	2d460fe2 	ldp	s2, s3, [sp, #48]
  400a04:	b00002c1 	adrp	x1, 459000 <free_modules_db>
  400a08:	1e22c000 	fcvt	d0, s0
  400a0c:	1e22c021 	fcvt	d1, s1
  400a10:	9135a042 	add	x2, x2, #0xd68
  400a14:	91370021 	add	x1, x1, #0xdc0
  400a18:	1e22c042 	fcvt	d2, s2
  400a1c:	1e22c063 	fcvt	d3, s3
  400a20:	52800020 	mov	w0, #0x1                   	// #1
  400a24:	94007073 	bl	41cbf0 <___printf_chk>
  400a28:	6f000400 	mvni	v0.4s, #0x0
  400a2c:	b00002c0 	adrp	x0, 459000 <free_modules_db>
  400a30:	9137c000 	add	x0, x0, #0xdf0
  400a34:	a90affff 	stp	xzr, xzr, [sp, #168]
  400a38:	3c8683e0 	stur	q0, [sp, #104]
  400a3c:	3c8883e0 	stur	q0, [sp, #136]
  400a40:	94001c6c 	bl	407bf0 <_IO_puts>
  400a44:	aa1303e1 	mov	x1, x19
  400a48:	aa1603e0 	mov	x0, x22
  400a4c:	94000102 	bl	400e54 <ex11_macro_zero_twice>
  400a50:	aa1503e2 	mov	x2, x21
  400a54:	aa1603e1 	mov	x1, x22
  400a58:	d2800203 	mov	x3, #0x10                  	// #16
  400a5c:	b00002c0 	adrp	x0, 459000 <free_modules_db>
  400a60:	9138a000 	add	x0, x0, #0xe28
  400a64:	94000143 	bl	400f70 <pass_bytes>
  400a68:	aa1503e2 	mov	x2, x21
  400a6c:	aa1303e1 	mov	x1, x19
  400a70:	d2800203 	mov	x3, #0x10                  	// #16
  400a74:	b00002c0 	adrp	x0, 459000 <free_modules_db>
  400a78:	91396000 	add	x0, x0, #0xe58
  400a7c:	9400013d 	bl	400f70 <pass_bytes>
  400a80:	52801403 	mov	w3, #0xa0                  	// #160
  400a84:	52801002 	mov	w2, #0x80                  	// #128
  400a88:	52800401 	mov	w1, #0x20                  	// #32
  400a8c:	d2800020 	mov	x0, #0x1                   	// #1
  400a90:	a908ffff 	stp	xzr, xzr, [sp, #136]
  400a94:	a909ffff 	stp	xzr, xzr, [sp, #152]
  400a98:	8b0002e9 	add	x9, x23, x0
  400a9c:	8b0002c7 	add	x7, x22, x0
  400aa0:	8b0002a5 	add	x5, x21, x0
  400aa4:	11000c28 	add	w8, w1, #0x3
  400aa8:	51001446 	sub	w6, w2, #0x5
  400aac:	51000864 	sub	w4, w3, #0x2
  400ab0:	91000400 	add	x0, x0, #0x1
  400ab4:	381ff121 	sturb	w1, [x9, #-1]
  400ab8:	12001d01 	and	w1, w8, #0xff
  400abc:	381ff0e2 	sturb	w2, [x7, #-1]
  400ac0:	12001cc2 	and	w2, w6, #0xff
  400ac4:	381ff0a3 	sturb	w3, [x5, #-1]
  400ac8:	12001c83 	and	w3, w4, #0xff
  400acc:	f100841f 	cmp	x0, #0x21
  400ad0:	54fffe41 	b.ne	400a98 <main+0x578>  // b.any
  400ad4:	b00002c0 	adrp	x0, 459000 <free_modules_db>
  400ad8:	913a0000 	add	x0, x0, #0xe80
  400adc:	94001c45 	bl	407bf0 <_IO_puts>
  400ae0:	aa1303e2 	mov	x2, x19
  400ae4:	aa1603e1 	mov	x1, x22
  400ae8:	aa1703e0 	mov	x0, x23
  400aec:	940000e1 	bl	400e70 <ex12_macro_add_two_blocks>
  400af0:	aa1503e2 	mov	x2, x21
  400af4:	aa1303e1 	mov	x1, x19
  400af8:	b00002c0 	adrp	x0, 459000 <free_modules_db>
  400afc:	d2800403 	mov	x3, #0x20                  	// #32
  400b00:	913b0000 	add	x0, x0, #0xec0
  400b04:	9400011b 	bl	400f70 <pass_bytes>
  400b08:	b9406282 	ldr	w2, [x20, #96]
  400b0c:	35000722 	cbnz	w2, 400bf0 <main+0x6d0>
  400b10:	b00002c0 	adrp	x0, 459000 <free_modules_db>
  400b14:	913c4000 	add	x0, x0, #0xf10
  400b18:	94001c36 	bl	407bf0 <_IO_puts>
  400b1c:	52800000 	mov	w0, #0x0                   	// #0
  400b20:	f0000481 	adrp	x1, 493000 <tunable_list+0x528>
  400b24:	f945f821 	ldr	x1, [x1, #3056]
  400b28:	f94067e3 	ldr	x3, [sp, #200]
  400b2c:	f9400022 	ldr	x2, [x1]
  400b30:	eb020063 	subs	x3, x3, x2
  400b34:	d2800002 	mov	x2, #0x0                   	// #0
  400b38:	54000681 	b.ne	400c08 <main+0x6e8>  // b.any
  400b3c:	a94d7bfd 	ldp	x29, x30, [sp, #208]
  400b40:	a94e53f3 	ldp	x19, x20, [sp, #224]
  400b44:	a94f5bf5 	ldp	x21, x22, [sp, #240]
  400b48:	a95063f7 	ldp	x23, x24, [sp, #256]
  400b4c:	a9516bf9 	ldp	x25, x26, [sp, #272]
  400b50:	f94093fb 	ldr	x27, [sp, #288]
  400b54:	9104c3ff 	add	sp, sp, #0x130
  400b58:	d65f03c0 	ret
  400b5c:	52800003 	mov	w3, #0x0                   	// #0
  400b60:	17ffffa2 	b	4009e8 <main+0x4c8>
  400b64:	2a1b03e3 	mov	w3, w27
  400b68:	b00002c2 	adrp	x2, 459000 <free_modules_db>
  400b6c:	b00002c1 	adrp	x1, 459000 <free_modules_db>
  400b70:	91332042 	add	x2, x2, #0xcc8
  400b74:	9134a021 	add	x1, x1, #0xd28
  400b78:	52800020 	mov	w0, #0x1                   	// #1
  400b7c:	9400701d 	bl	41cbf0 <___printf_chk>
  400b80:	17ffff67 	b	40091c <main+0x3fc>
  400b84:	b00002db 	adrp	x27, 459000 <free_modules_db>
  400b88:	9136437b 	add	x27, x27, #0xd90
  400b8c:	d2800039 	mov	x25, #0x1                   	// #1
  400b90:	b00002c2 	adrp	x2, 459000 <free_modules_db>
  400b94:	b00002c1 	adrp	x1, 459000 <free_modules_db>
  400b98:	9135a042 	add	x2, x2, #0xd68
  400b9c:	9121c021 	add	x1, x1, #0x870
  400ba0:	52800020 	mov	w0, #0x1                   	// #1
  400ba4:	94007013 	bl	41cbf0 <___printf_chk>
  400ba8:	d37ef720 	lsl	x0, x25, #2
  400bac:	d1000722 	sub	x2, x25, #0x1
  400bb0:	8b000344 	add	x4, x26, x0
  400bb4:	8b000303 	add	x3, x24, x0
  400bb8:	91000739 	add	x25, x25, #0x1
  400bbc:	aa1b03e1 	mov	x1, x27
  400bc0:	52800020 	mov	w0, #0x1                   	// #1
  400bc4:	bc5fc060 	ldur	s0, [x3, #-4]
  400bc8:	bc5fc081 	ldur	s1, [x4, #-4]
  400bcc:	1e22c000 	fcvt	d0, s0
  400bd0:	1e22c021 	fcvt	d1, s1
  400bd4:	94007007 	bl	41cbf0 <___printf_chk>
  400bd8:	f100173f 	cmp	x25, #0x5
  400bdc:	54fffe61 	b.ne	400ba8 <main+0x688>  // b.any
  400be0:	b9406280 	ldr	w0, [x20, #96]
  400be4:	11000400 	add	w0, w0, #0x1
  400be8:	b9006280 	str	w0, [x20, #96]
  400bec:	17ffff8f 	b	400a28 <main+0x508>
  400bf0:	b00002c1 	adrp	x1, 459000 <free_modules_db>
  400bf4:	52800020 	mov	w0, #0x1                   	// #1
  400bf8:	913bc021 	add	x1, x1, #0xef0
  400bfc:	94006ffd 	bl	41cbf0 <___printf_chk>
  400c00:	52800020 	mov	w0, #0x1                   	// #1
  400c04:	17ffffc7 	b	400b20 <main+0x600>
  400c08:	9400702a 	bl	41ccb0 <__stack_chk_fail>
  400c0c:	d503201f 	nop

0000000000400c10 <init_have_lse_atomics>:
  400c10:	a9bf7bfd 	stp	x29, x30, [sp, #-16]!
  400c14:	d2800200 	mov	x0, #0x10                  	// #16
  400c18:	910003fd 	mov	x29, sp
  400c1c:	94015fc9 	bl	458b40 <__getauxval>
  400c20:	53082000 	ubfx	w0, w0, #8, #1
  400c24:	f00004c1 	adrp	x1, 49b000 <_dl_in_flight_stack>
  400c28:	a8c17bfd 	ldp	x29, x30, [sp], #16
  400c2c:	3911a020 	strb	w0, [x1, #1128]
  400c30:	d65f03c0 	ret
  400c34:	d503201f 	nop
  400c38:	d503201f 	nop
  400c3c:	d503201f 	nop

0000000000400c40 <_start>:
  400c40:	d503201f 	nop
  400c44:	d280001d 	mov	x29, #0x0                   	// #0
  400c48:	d280001e 	mov	x30, #0x0                   	// #0
  400c4c:	aa0003e5 	mov	x5, x0
  400c50:	f94003e1 	ldr	x1, [sp]
  400c54:	910023e2 	add	x2, sp, #0x8
  400c58:	910003e6 	mov	x6, sp
  400c5c:	90000000 	adrp	x0, 400000 <__ehdr_start>
  400c60:	9131d000 	add	x0, x0, #0xc74
  400c64:	d2800003 	mov	x3, #0x0                   	// #0
  400c68:	d2800004 	mov	x4, #0x0                   	// #0
  400c6c:	94000179 	bl	401250 <__libc_start_main>
  400c70:	97fffdb4 	bl	400340 <abort>

0000000000400c74 <__wrap_main>:
  400c74:	d503201f 	nop
  400c78:	17fffe2a 	b	400520 <main>
  400c7c:	d503201f 	nop

0000000000400c80 <_dl_relocate_static_pie>:
  400c80:	d65f03c0 	ret

0000000000400c84 <call_weak_fn>:
  400c84:	f0000480 	adrp	x0, 493000 <tunable_list+0x528>
  400c88:	f947e800 	ldr	x0, [x0, #4048]
  400c8c:	b4000040 	cbz	x0, 400c94 <call_weak_fn+0x10>
  400c90:	d503201f 	nop
  400c94:	d65f03c0 	ret
  400c98:	d503201f 	nop
  400c9c:	d503201f 	nop

0000000000400ca0 <deregister_tm_clones>:
  400ca0:	b00004a0 	adrp	x0, 495000 <_dl_main_map>
  400ca4:	91252000 	add	x0, x0, #0x948
  400ca8:	b00004a1 	adrp	x1, 495000 <_dl_main_map>
  400cac:	91252021 	add	x1, x1, #0x948
  400cb0:	eb00003f 	cmp	x1, x0
  400cb4:	540000c0 	b.eq	400ccc <deregister_tm_clones+0x2c>  // b.none
  400cb8:	b00002c1 	adrp	x1, 459000 <free_modules_db>
  400cbc:	f9441c21 	ldr	x1, [x1, #2104]
  400cc0:	b4000061 	cbz	x1, 400ccc <deregister_tm_clones+0x2c>
  400cc4:	aa0103f0 	mov	x16, x1
  400cc8:	d61f0200 	br	x16
  400ccc:	d65f03c0 	ret

0000000000400cd0 <register_tm_clones>:
  400cd0:	b00004a0 	adrp	x0, 495000 <_dl_main_map>
  400cd4:	91252000 	add	x0, x0, #0x948
  400cd8:	b00004a1 	adrp	x1, 495000 <_dl_main_map>
  400cdc:	91252021 	add	x1, x1, #0x948
  400ce0:	cb000021 	sub	x1, x1, x0
  400ce4:	d37ffc22 	lsr	x2, x1, #63
  400ce8:	8b810c41 	add	x1, x2, x1, asr #3
  400cec:	9341fc21 	asr	x1, x1, #1
  400cf0:	b40000c1 	cbz	x1, 400d08 <register_tm_clones+0x38>
  400cf4:	b00002c2 	adrp	x2, 459000 <free_modules_db>
  400cf8:	f9442042 	ldr	x2, [x2, #2112]
  400cfc:	b4000062 	cbz	x2, 400d08 <register_tm_clones+0x38>
  400d00:	aa0203f0 	mov	x16, x2
  400d04:	d61f0200 	br	x16
  400d08:	d65f03c0 	ret
  400d0c:	d503201f 	nop

0000000000400d10 <__do_global_dtors_aux>:
  400d10:	a9be7bfd 	stp	x29, x30, [sp, #-32]!
  400d14:	910003fd 	mov	x29, sp
  400d18:	f9000bf3 	str	x19, [sp, #16]
  400d1c:	d00004b3 	adrp	x19, 496000 <_IO_strn_jumps+0x88>
  400d20:	3940a260 	ldrb	w0, [x19, #40]
  400d24:	35000140 	cbnz	w0, 400d4c <__do_global_dtors_aux+0x3c>
  400d28:	97ffffde 	bl	400ca0 <deregister_tm_clones>
  400d2c:	b00002c0 	adrp	x0, 459000 <free_modules_db>
  400d30:	f9442400 	ldr	x0, [x0, #2120]
  400d34:	b4000080 	cbz	x0, 400d44 <__do_global_dtors_aux+0x34>
  400d38:	900003a0 	adrp	x0, 474000 <terminator.3+0x10>
  400d3c:	9100e000 	add	x0, x0, #0x38
  400d40:	94015d99 	bl	4583a4 <__deregister_frame_info>
  400d44:	52800020 	mov	w0, #0x1                   	// #1
  400d48:	3900a260 	strb	w0, [x19, #40]
  400d4c:	f9400bf3 	ldr	x19, [sp, #16]
  400d50:	a8c27bfd 	ldp	x29, x30, [sp], #32
  400d54:	d65f03c0 	ret
  400d58:	d503201f 	nop
  400d5c:	d503201f 	nop

0000000000400d60 <frame_dummy>:
  400d60:	b00002c0 	adrp	x0, 459000 <free_modules_db>
  400d64:	f9442800 	ldr	x0, [x0, #2128]
  400d68:	b4000140 	cbz	x0, 400d90 <frame_dummy+0x30>
  400d6c:	a9bf7bfd 	stp	x29, x30, [sp, #-16]!
  400d70:	d00004a1 	adrp	x1, 496000 <_IO_strn_jumps+0x88>
  400d74:	900003a0 	adrp	x0, 474000 <terminator.3+0x10>
  400d78:	910003fd 	mov	x29, sp
  400d7c:	9100c021 	add	x1, x1, #0x30
  400d80:	9100e000 	add	x0, x0, #0x38
  400d84:	94015c7f 	bl	457f80 <__register_frame_info>
  400d88:	a8c17bfd 	ldp	x29, x30, [sp], #16
  400d8c:	17ffffd1 	b	400cd0 <register_tm_clones>
  400d90:	17ffffd0 	b	400cd0 <register_tm_clones>

0000000000400d94 <ex1_move_w_to_low_u32>:
  400d94:	3dc00020 	ldr	q0, [x1]
  400d98:	4e041c00 	mov	v0.s[0], w0

0000000000400d9c <ex1_after_insert>:
  400d9c:	3d800040 	str	q0, [x2]
  400da0:	d65f03c0 	ret

0000000000400da4 <ex2_move_x_to_low_u64>:
  400da4:	3dc00020 	ldr	q0, [x1]
  400da8:	4e081c00 	mov	v0.d[0], x0

0000000000400dac <ex2_after_insert>:
  400dac:	3d800040 	str	q0, [x2]
  400db0:	d65f03c0 	ret

0000000000400db4 <ex3_zero_v0>:
  400db4:	4f07e7e0 	movi	v0.16b, #0xff
  400db8:	6e201c00 	eor	v0.16b, v0.16b, v0.16b

0000000000400dbc <ex3_after_zero>:
  400dbc:	3d800000 	str	q0, [x0]
  400dc0:	d65f03c0 	ret

0000000000400dc4 <ex4_fill_ones_v0>:
  400dc4:	4f07e7e0 	movi	v0.16b, #0xff

0000000000400dc8 <ex4_after_fill>:
  400dc8:	3d800000 	str	q0, [x0]
  400dcc:	d65f03c0 	ret

0000000000400dd0 <ex5_shuffle_bytes>:
  400dd0:	3dc00000 	ldr	q0, [x0]
  400dd4:	b00002c2 	adrp	x2, 459000 <free_modules_db>
  400dd8:	91218042 	add	x2, x2, #0x860
  400ddc:	3dc00041 	ldr	q1, [x2]
  400de0:	4e010002 	tbl	v2.16b, {v0.16b}, v1.16b

0000000000400de4 <ex5_after_shuffle>:
  400de4:	3d800022 	str	q2, [x1]
  400de8:	d65f03c0 	ret

0000000000400dec <ex6_insert_word_lane2>:
  400dec:	3dc00020 	ldr	q0, [x1]
  400df0:	4e141c00 	mov	v0.s[2], w0

0000000000400df4 <ex6_after_insert>:
  400df4:	3d800040 	str	q0, [x2]
  400df8:	d65f03c0 	ret

0000000000400dfc <ex7_shift_left_2d_by_5>:
  400dfc:	3dc00000 	ldr	q0, [x0]
  400e00:	4f455400 	shl	v0.2d, v0.2d, #5

0000000000400e04 <ex7_after_shift>:
  400e04:	3d800020 	str	q0, [x1]
  400e08:	d65f03c0 	ret

0000000000400e0c <ex8_add_u8x16>:
  400e0c:	3dc00000 	ldr	q0, [x0]
  400e10:	3dc00021 	ldr	q1, [x1]
  400e14:	4e218402 	add	v2.16b, v0.16b, v1.16b

0000000000400e18 <ex8_after_add>:
  400e18:	3d800042 	str	q2, [x2]
  400e1c:	d65f03c0 	ret

0000000000400e20 <ex9_dot_u16x8>:
  400e20:	3dc00000 	ldr	q0, [x0]
  400e24:	3dc00021 	ldr	q1, [x1]
  400e28:	2e61c002 	umull	v2.4s, v0.4h, v1.4h
  400e2c:	6e61c003 	umull2	v3.4s, v0.8h, v1.8h
  400e30:	4ea38442 	add	v2.4s, v2.4s, v3.4s
  400e34:	4eb1b844 	addv	s4, v2.4s
  400e38:	1e260080 	fmov	w0, s4

0000000000400e3c <ex9_after_reduce>:
  400e3c:	d65f03c0 	ret

0000000000400e40 <ex10_add_f32x4>:
  400e40:	3dc00000 	ldr	q0, [x0]
  400e44:	3dc00021 	ldr	q1, [x1]
  400e48:	4e21d402 	fadd	v2.4s, v0.4s, v1.4s

0000000000400e4c <ex10_after_fadd>:
  400e4c:	3d800042 	str	q2, [x2]
  400e50:	d65f03c0 	ret

0000000000400e54 <ex11_macro_zero_twice>:
  400e54:	4f02e740 	movi	v0.16b, #0x5a
  400e58:	6e201c00 	eor	v0.16b, v0.16b, v0.16b

0000000000400e5c <ex11_after_first_zero>:
  400e5c:	3d800000 	str	q0, [x0]
  400e60:	4f05e4a1 	movi	v1.16b, #0xa5
  400e64:	6e211c21 	eor	v1.16b, v1.16b, v1.16b

0000000000400e68 <ex11_after_second_zero>:
  400e68:	3d800021 	str	q1, [x1]
  400e6c:	d65f03c0 	ret

0000000000400e70 <ex12_macro_add_two_blocks>:
  400e70:	91000009 	add	x9, x0, #0x0
  400e74:	9100002a 	add	x10, x1, #0x0
  400e78:	9100004b 	add	x11, x2, #0x0
  400e7c:	4c407120 	ld1	{v0.16b}, [x9]
  400e80:	4c407141 	ld1	{v1.16b}, [x10]
  400e84:	4e218402 	add	v2.16b, v0.16b, v1.16b
  400e88:	4c007162 	st1	{v2.16b}, [x11]

0000000000400e8c <ex12_after_block0>:
  400e8c:	91004009 	add	x9, x0, #0x10
  400e90:	9100402a 	add	x10, x1, #0x10
  400e94:	9100404b 	add	x11, x2, #0x10
  400e98:	4c407123 	ld1	{v3.16b}, [x9]
  400e9c:	4c407144 	ld1	{v4.16b}, [x10]
  400ea0:	4e248465 	add	v5.16b, v3.16b, v4.16b
  400ea4:	4c007165 	st1	{v5.16b}, [x11]

0000000000400ea8 <ex12_after_block1>:
  400ea8:	d65f03c0 	ret
  400eac:	d503201f 	nop

0000000000400eb0 <pass_u32x4>:
  400eb0:	a9bd7bfd 	stp	x29, x30, [sp, #-48]!
  400eb4:	910003fd 	mov	x29, sp
  400eb8:	a9025bf5 	stp	x21, x22, [sp, #32]
  400ebc:	aa0203f5 	mov	x21, x2
  400ec0:	aa0003e2 	mov	x2, x0
  400ec4:	a90153f3 	stp	x19, x20, [sp, #16]
  400ec8:	aa0103f4 	mov	x20, x1
  400ecc:	f94002a0 	ldr	x0, [x21]
  400ed0:	f9400021 	ldr	x1, [x1]
  400ed4:	eb00003f 	cmp	x1, x0
  400ed8:	54000320 	b.eq	400f3c <pass_u32x4+0x8c>  // b.none
  400edc:	b00002d6 	adrp	x22, 459000 <free_modules_db>
  400ee0:	912202d6 	add	x22, x22, #0x880
  400ee4:	d2800013 	mov	x19, #0x0                   	// #0
  400ee8:	b00002c1 	adrp	x1, 459000 <free_modules_db>
  400eec:	52800020 	mov	w0, #0x1                   	// #1
  400ef0:	9121c021 	add	x1, x1, #0x870
  400ef4:	94006f3f 	bl	41cbf0 <___printf_chk>
  400ef8:	b8737aa4 	ldr	w4, [x21, x19, lsl #2]
  400efc:	aa1303e2 	mov	x2, x19
  400f00:	b8737a83 	ldr	w3, [x20, x19, lsl #2]
  400f04:	aa1603e1 	mov	x1, x22
  400f08:	91000673 	add	x19, x19, #0x1
  400f0c:	52800020 	mov	w0, #0x1                   	// #1
  400f10:	94006f38 	bl	41cbf0 <___printf_chk>
  400f14:	f100127f 	cmp	x19, #0x4
  400f18:	54ffff01 	b.ne	400ef8 <pass_u32x4+0x48>  // b.any
  400f1c:	d00004a1 	adrp	x1, 496000 <_IO_strn_jumps+0x88>
  400f20:	a94153f3 	ldp	x19, x20, [sp, #16]
  400f24:	b9406020 	ldr	w0, [x1, #96]
  400f28:	a9425bf5 	ldp	x21, x22, [sp, #32]
  400f2c:	11000400 	add	w0, w0, #0x1
  400f30:	a8c37bfd 	ldp	x29, x30, [sp], #48
  400f34:	b9006020 	str	w0, [x1, #96]
  400f38:	d65f03c0 	ret
  400f3c:	f9400681 	ldr	x1, [x20, #8]
  400f40:	f94006a0 	ldr	x0, [x21, #8]
  400f44:	eb00003f 	cmp	x1, x0
  400f48:	54fffca1 	b.ne	400edc <pass_u32x4+0x2c>  // b.any
  400f4c:	29401283 	ldp	w3, w4, [x20]
  400f50:	b00002c1 	adrp	x1, 459000 <free_modules_db>
  400f54:	29411a85 	ldp	w5, w6, [x20, #8]
  400f58:	9122c021 	add	x1, x1, #0x8b0
  400f5c:	a94153f3 	ldp	x19, x20, [sp, #16]
  400f60:	52800020 	mov	w0, #0x1                   	// #1
  400f64:	a9425bf5 	ldp	x21, x22, [sp, #32]
  400f68:	a8c37bfd 	ldp	x29, x30, [sp], #48
  400f6c:	14006f21 	b	41cbf0 <___printf_chk>

0000000000400f70 <pass_bytes>:
  400f70:	a9bc7bfd 	stp	x29, x30, [sp, #-64]!
  400f74:	910003fd 	mov	x29, sp
  400f78:	a90153f3 	stp	x19, x20, [sp, #16]
  400f7c:	aa0103f3 	mov	x19, x1
  400f80:	aa0003f4 	mov	x20, x0
  400f84:	a9025bf5 	stp	x21, x22, [sp, #32]
  400f88:	aa0203f5 	mov	x21, x2
  400f8c:	aa0303f6 	mov	x22, x3
  400f90:	aa0303e2 	mov	x2, x3
  400f94:	aa1503e1 	mov	x1, x21
  400f98:	aa1303e0 	mov	x0, x19
  400f9c:	940056b9 	bl	416a80 <__memcmpeq>
  400fa0:	35000300 	cbnz	w0, 401000 <pass_bytes+0x90>
  400fa4:	aa1403e2 	mov	x2, x20
  400fa8:	8b160276 	add	x22, x19, x22
  400fac:	b00002d4 	adrp	x20, 459000 <free_modules_db>
  400fb0:	91240294 	add	x20, x20, #0x900
  400fb4:	b00002c1 	adrp	x1, 459000 <free_modules_db>
  400fb8:	52800020 	mov	w0, #0x1                   	// #1
  400fbc:	91248021 	add	x1, x1, #0x920
  400fc0:	94006f0c 	bl	41cbf0 <___printf_chk>
  400fc4:	d503201f 	nop
  400fc8:	38401662 	ldrb	w2, [x19], #1
  400fcc:	aa1403e1 	mov	x1, x20
  400fd0:	52800020 	mov	w0, #0x1                   	// #1
  400fd4:	94006f07 	bl	41cbf0 <___printf_chk>
  400fd8:	eb16027f 	cmp	x19, x22
  400fdc:	54ffff61 	b.ne	400fc8 <pass_bytes+0x58>  // b.any
  400fe0:	f0000481 	adrp	x1, 493000 <tunable_list+0x528>
  400fe4:	52800140 	mov	w0, #0xa                   	// #10
  400fe8:	a94153f3 	ldp	x19, x20, [sp, #16]
  400fec:	f945e821 	ldr	x1, [x1, #3024]
  400ff0:	a9425bf5 	ldp	x21, x22, [sp, #32]
  400ff4:	a8c47bfd 	ldp	x29, x30, [sp], #64
  400ff8:	f9400021 	ldr	x1, [x1]
  400ffc:	140022cd 	b	409b30 <_IO_putc>
  401000:	aa1403e2 	mov	x2, x20
  401004:	900002c1 	adrp	x1, 459000 <free_modules_db>
  401008:	900002d4 	adrp	x20, 459000 <free_modules_db>
  40100c:	91238021 	add	x1, x1, #0x8e0
  401010:	91240294 	add	x20, x20, #0x900
  401014:	52800020 	mov	w0, #0x1                   	// #1
  401018:	f9001bf7 	str	x23, [sp, #48]
  40101c:	8b160277 	add	x23, x19, x22
  401020:	94006ef4 	bl	41cbf0 <___printf_chk>
  401024:	d503201f 	nop
  401028:	38401662 	ldrb	w2, [x19], #1
  40102c:	aa1403e1 	mov	x1, x20
  401030:	52800020 	mov	w0, #0x1                   	// #1
  401034:	94006eef 	bl	41cbf0 <___printf_chk>
  401038:	eb17027f 	cmp	x19, x23
  40103c:	54ffff61 	b.ne	401028 <pass_bytes+0xb8>  // b.any
  401040:	900002c1 	adrp	x1, 459000 <free_modules_db>
  401044:	8b1602b6 	add	x22, x21, x22
  401048:	91242021 	add	x1, x1, #0x908
  40104c:	52800020 	mov	w0, #0x1                   	// #1
  401050:	94006ee8 	bl	41cbf0 <___printf_chk>
  401054:	d503201f 	nop
  401058:	384016a2 	ldrb	w2, [x21], #1
  40105c:	aa1403e1 	mov	x1, x20
  401060:	52800020 	mov	w0, #0x1                   	// #1
  401064:	94006ee3 	bl	41cbf0 <___printf_chk>
  401068:	eb1502df 	cmp	x22, x21
  40106c:	54ffff61 	b.ne	401058 <pass_bytes+0xe8>  // b.any
  401070:	d0000481 	adrp	x1, 493000 <tunable_list+0x528>
  401074:	52800140 	mov	w0, #0xa                   	// #10
  401078:	f945e821 	ldr	x1, [x1, #3024]
  40107c:	f9400021 	ldr	x1, [x1]
  401080:	940022ac 	bl	409b30 <_IO_putc>
  401084:	b00004a1 	adrp	x1, 496000 <_IO_strn_jumps+0x88>
  401088:	a94153f3 	ldp	x19, x20, [sp, #16]
  40108c:	b9406020 	ldr	w0, [x1, #96]
  401090:	a9425bf5 	ldp	x21, x22, [sp, #32]
  401094:	11000400 	add	w0, w0, #0x1
  401098:	b9006020 	str	w0, [x1, #96]
  40109c:	f9401bf7 	ldr	x23, [sp, #48]
  4010a0:	a8c47bfd 	ldp	x29, x30, [sp], #64
  4010a4:	d65f03c0 	ret
  4010a8:	d503201f 	nop
  4010ac:	d503201f 	nop

00000000004010b0 <pass_u64x2>:
  4010b0:	a9bd7bfd 	stp	x29, x30, [sp, #-48]!
  4010b4:	910003fd 	mov	x29, sp
  4010b8:	a90153f3 	stp	x19, x20, [sp, #16]
  4010bc:	aa0203f4 	mov	x20, x2
  4010c0:	aa0003e2 	mov	x2, x0
  4010c4:	f9400023 	ldr	x3, [x1]
  4010c8:	aa0103f3 	mov	x19, x1
  4010cc:	f9400280 	ldr	x0, [x20]
  4010d0:	eb00007f 	cmp	x3, x0
  4010d4:	54000380 	b.eq	401144 <pass_u64x2+0x94>  // b.none
  4010d8:	900002c1 	adrp	x1, 459000 <free_modules_db>
  4010dc:	52800020 	mov	w0, #0x1                   	// #1
  4010e0:	9121c021 	add	x1, x1, #0x870
  4010e4:	f90013f5 	str	x21, [sp, #32]
  4010e8:	94006ec2 	bl	41cbf0 <___printf_chk>
  4010ec:	900002d5 	adrp	x21, 459000 <free_modules_db>
  4010f0:	f9400263 	ldr	x3, [x19]
  4010f4:	9124c2b5 	add	x21, x21, #0x930
  4010f8:	f9400284 	ldr	x4, [x20]
  4010fc:	aa1503e1 	mov	x1, x21
  401100:	d2800002 	mov	x2, #0x0                   	// #0
  401104:	52800020 	mov	w0, #0x1                   	// #1
  401108:	94006eba 	bl	41cbf0 <___printf_chk>
  40110c:	f9400663 	ldr	x3, [x19, #8]
  401110:	aa1503e1 	mov	x1, x21
  401114:	f9400684 	ldr	x4, [x20, #8]
  401118:	d2800022 	mov	x2, #0x1                   	// #1
  40111c:	2a0203e0 	mov	w0, w2
  401120:	94006eb4 	bl	41cbf0 <___printf_chk>
  401124:	b00004a1 	adrp	x1, 496000 <_IO_strn_jumps+0x88>
  401128:	a94153f3 	ldp	x19, x20, [sp, #16]
  40112c:	b9406020 	ldr	w0, [x1, #96]
  401130:	f94013f5 	ldr	x21, [sp, #32]
  401134:	11000400 	add	w0, w0, #0x1
  401138:	a8c37bfd 	ldp	x29, x30, [sp], #48
  40113c:	b9006020 	str	w0, [x1, #96]
  401140:	d65f03c0 	ret
  401144:	f9400424 	ldr	x4, [x1, #8]
  401148:	f9400680 	ldr	x0, [x20, #8]
  40114c:	eb00009f 	cmp	x4, x0
  401150:	54fffc41 	b.ne	4010d8 <pass_u64x2+0x28>  // b.any
  401154:	a94153f3 	ldp	x19, x20, [sp, #16]
  401158:	900002c1 	adrp	x1, 459000 <free_modules_db>
  40115c:	a8c37bfd 	ldp	x29, x30, [sp], #48
  401160:	91258021 	add	x1, x1, #0x960
  401164:	52800020 	mov	w0, #0x1                   	// #1
  401168:	14006ea2 	b	41cbf0 <___printf_chk>
  40116c:	d503201f 	nop

0000000000401170 <call_fini>:
  401170:	a9be7bfd 	stp	x29, x30, [sp, #-32]!
  401174:	f0000460 	adrp	x0, 490000 <__FRAME_END__+0x105d0>
  401178:	91218000 	add	x0, x0, #0x860
  40117c:	910003fd 	mov	x29, sp
  401180:	a90153f3 	stp	x19, x20, [sp, #16]
  401184:	f0000473 	adrp	x19, 490000 <__FRAME_END__+0x105d0>
  401188:	9121a273 	add	x19, x19, #0x868
  40118c:	cb000273 	sub	x19, x19, x0
  401190:	9343fe73 	asr	x19, x19, #3
  401194:	b40000f3 	cbz	x19, 4011b0 <call_fini+0x40>
  401198:	f0000474 	adrp	x20, 490000 <__FRAME_END__+0x105d0>
  40119c:	91216294 	add	x20, x20, #0x858
  4011a0:	f8737a80 	ldr	x0, [x20, x19, lsl #3]
  4011a4:	d63f0000 	blr	x0
  4011a8:	f1000673 	subs	x19, x19, #0x1
  4011ac:	54ffffa1 	b.ne	4011a0 <call_fini+0x30>  // b.any
  4011b0:	a94153f3 	ldp	x19, x20, [sp, #16]
  4011b4:	a8c27bfd 	ldp	x29, x30, [sp], #32
  4011b8:	14016197 	b	459814 <_fini>
  4011bc:	d503201f 	nop

00000000004011c0 <__libc_start_call_main>:
  4011c0:	a9af7bfd 	stp	x29, x30, [sp, #-272]!
  4011c4:	910003fd 	mov	x29, sp
  4011c8:	f9000fe0 	str	x0, [sp, #24]
  4011cc:	9100e3e0 	add	x0, sp, #0x38
  4011d0:	b90027e1 	str	w1, [sp, #36]
  4011d4:	f90017e2 	str	x2, [sp, #40]
  4011d8:	940012da 	bl	405d40 <_setjmp>
  4011dc:	350001e0 	cbnz	w0, 401218 <__libc_start_call_main+0x58>
  4011e0:	d53bd040 	mrs	x0, tpidr_el0
  4011e4:	b00004c1 	adrp	x1, 49a000 <__pthread_keys+0x3148>
  4011e8:	d11f0000 	sub	x0, x0, #0x7c0
  4011ec:	9100e3e3 	add	x3, sp, #0x38
  4011f0:	f9478c22 	ldr	x2, [x1, #3864]
  4011f4:	f9408004 	ldr	x4, [x0, #256]
  4011f8:	f9008003 	str	x3, [x0, #256]
  4011fc:	f9407c03 	ldr	x3, [x0, #248]
  401200:	a90f0fe4 	stp	x4, x3, [sp, #240]
  401204:	b94027e0 	ldr	w0, [sp, #36]
  401208:	f9400fe3 	ldr	x3, [sp, #24]
  40120c:	f94017e1 	ldr	x1, [sp, #40]
  401210:	d63f0060 	blr	x3
  401214:	94001583 	bl	406820 <exit>
  401218:	940037da 	bl	40f180 <__nptl_deallocate_tsd>
  40121c:	f0000481 	adrp	x1, 494000 <.got.plt+0x18>
  401220:	12800000 	mov	w0, #0xffffffff            	// #-1
  401224:	91176021 	add	x1, x1, #0x5d8
  401228:	940149ba 	bl	453910 <__aarch64_ldadd4_acq>
  40122c:	7100041f 	cmp	w0, #0x1
  401230:	540000a0 	b.eq	401244 <__libc_start_call_main+0x84>  // b.none
  401234:	d2800ba8 	mov	x8, #0x5d                  	// #93
  401238:	d2800000 	mov	x0, #0x0                   	// #0
  40123c:	d4000001 	svc	#0x0
  401240:	17fffffe 	b	401238 <__libc_start_call_main+0x78>
  401244:	52800000 	mov	w0, #0x0                   	// #0
  401248:	94001576 	bl	406820 <exit>
  40124c:	d503201f 	nop

0000000000401250 <__libc_start_main>:
  401250:	a9b67bfd 	stp	x29, x30, [sp, #-160]!
  401254:	910003fd 	mov	x29, sp
  401258:	a90153f3 	stp	x19, x20, [sp, #16]
  40125c:	2a0103f3 	mov	w19, w1
  401260:	aa0203f4 	mov	x20, x2
  401264:	d0000481 	adrp	x1, 493000 <tunable_list+0x528>
  401268:	b00004c2 	adrp	x2, 49a000 <__pthread_keys+0x3148>
  40126c:	a90683e2 	stp	x2, x0, [sp, #104]
  401270:	8b33ce80 	add	x0, x20, w19, sxtw #3
  401274:	91002000 	add	x0, x0, #0x8
  401278:	f9039c26 	str	x6, [x1, #1848]
  40127c:	f9078c40 	str	x0, [x2, #3864]
  401280:	f9003fe5 	str	x5, [sp, #120]
  401284:	d503201f 	nop
  401288:	f8408401 	ldr	x1, [x0], #8
  40128c:	b5ffffe1 	cbnz	x1, 401288 <__libc_start_main+0x38>
  401290:	94007478 	bl	41e470 <_dl_aux_init>
  401294:	b00004c1 	adrp	x1, 49a000 <__pthread_keys+0x3148>
  401298:	f947cc20 	ldr	x0, [x1, #3992]
  40129c:	b40009c0 	cbz	x0, 4013d4 <__libc_start_main+0x184>
  4012a0:	a9025bf5 	stp	x21, x22, [sp, #32]
  4012a4:	a90363f7 	stp	x23, x24, [sp, #48]
  4012a8:	910223f8 	add	x24, sp, #0x88
  4012ac:	a9046bf9 	stp	x25, x26, [sp, #64]
  4012b0:	a90573fb 	stp	x27, x28, [sp, #80]
  4012b4:	94007807 	bl	41f2d0 <__libc_init_secure>
  4012b8:	f94037e0 	ldr	x0, [sp, #104]
  4012bc:	f9478c00 	ldr	x0, [x0, #3864]
  4012c0:	940071e4 	bl	41da50 <__tunables_init>
  4012c4:	aa1803e1 	mov	x1, x24
  4012c8:	d2800002 	mov	x2, #0x0                   	// #0
  4012cc:	528000a0 	mov	w0, #0x5                   	// #5
  4012d0:	94007374 	bl	41e0a0 <__tunable_get_val>
  4012d4:	f94047f9 	ldr	x25, [sp, #136]
  4012d8:	b4000199 	cbz	x25, 401308 <__libc_start_main+0xb8>
  4012dc:	f0000477 	adrp	x23, 490000 <__FRAME_END__+0x105d0>
  4012e0:	9121a2f6 	add	x22, x23, #0x868
  4012e4:	52800015 	mov	w21, #0x0                   	// #0
  4012e8:	f94002c1 	ldr	x1, [x22]
  4012ec:	aa1903e0 	mov	x0, x25
  4012f0:	94005274 	bl	415cc0 <strcmp>
  4012f4:	34000920 	cbz	w0, 401418 <__libc_start_main+0x1c8>
  4012f8:	110006b5 	add	w21, w21, #0x1
  4012fc:	910042d6 	add	x22, x22, #0x10
  401300:	71002abf 	cmp	w21, #0xa
  401304:	54ffff21 	b.ne	4012e8 <__libc_start_main+0x98>  // b.any
  401308:	b00004d5 	adrp	x21, 49a000 <__pthread_keys+0x3148>
  40130c:	f947c2a0 	ldr	x0, [x21, #3968]
  401310:	92750001 	and	x1, x0, #0x800
  401314:	36580040 	tbz	w0, #11, 40131c <__libc_start_main+0xcc>
  401318:	d5380001 	mrs	x1, midr_el1
  40131c:	d00004c0 	adrp	x0, 49b000 <_dl_in_flight_stack>
  401320:	91016003 	add	x3, x0, #0x58
  401324:	f9002c01 	str	x1, [x0, #88]
  401328:	d53b00e1 	mrs	x1, dczid_el0
  40132c:	372000a1 	tbnz	w1, #4, 401340 <__libc_start_main+0xf0>
  401330:	12000c21 	and	w1, w1, #0xf
  401334:	52800082 	mov	w2, #0x4                   	// #4
  401338:	1ac12041 	lsl	w1, w2, w1
  40133c:	b9000861 	str	w1, [x3, #8]
  401340:	b00004d7 	adrp	x23, 49a000 <__pthread_keys+0x3148>
  401344:	91016000 	add	x0, x0, #0x58
  401348:	f947c2a2 	ldr	x2, [x21, #3968]
  40134c:	d000049a 	adrp	x26, 493000 <tunable_list+0x528>
  401350:	f947bee1 	ldr	x1, [x23, #3960]
  401354:	3900341f 	strb	wzr, [x0, #13]
  401358:	53165842 	ubfx	w2, w2, #22, #1
  40135c:	39003802 	strb	w2, [x0, #14]
  401360:	53114421 	ubfx	w1, w1, #17, #1
  401364:	39003001 	strb	w1, [x0, #12]
  401368:	97fffe46 	bl	400c80 <_dl_relocate_static_pie>
  40136c:	f9468342 	ldr	x2, [x26, #3328]
  401370:	f9464756 	ldr	x22, [x26, #3208]
  401374:	eb16005f 	cmp	x2, x22
  401378:	540005e2 	b.cs	401434 <__libc_start_main+0x1e4>  // b.hs, b.nlast
  40137c:	aa0203fb 	mov	x27, x2
  401380:	d2800319 	mov	x25, #0x18                  	// #24
  401384:	1400000d 	b	4013b8 <__libc_start_main+0x168>
  401388:	f9400b64 	ldr	x4, [x27, #16]
  40138c:	9100637b 	add	x27, x27, #0x18
  401390:	f947c2a0 	ldr	x0, [x21, #3968]
  401394:	a90883f9 	stp	x25, x0, [sp, #136]
  401398:	f947bee1 	ldr	x1, [x23, #3960]
  40139c:	f9004fe1 	str	x1, [sp, #152]
  4013a0:	b2420000 	orr	x0, x0, #0x4000000000000000
  4013a4:	aa1803e1 	mov	x1, x24
  4013a8:	d63f0080 	blr	x4
  4013ac:	f9000380 	str	x0, [x28]
  4013b0:	eb16037f 	cmp	x27, x22
  4013b4:	54000402 	b.cs	401434 <__libc_start_main+0x1e4>  // b.hs, b.nlast
  4013b8:	b9400b60 	ldr	w0, [x27, #8]
  4013bc:	f940037c 	ldr	x28, [x27]
  4013c0:	f110201f 	cmp	x0, #0x408
  4013c4:	54fffe20 	b.eq	401388 <__libc_start_main+0x138>  // b.none
  4013c8:	900002c0 	adrp	x0, 459000 <free_modules_db>
  4013cc:	913ee000 	add	x0, x0, #0xfb8
  4013d0:	94002358 	bl	40a130 <__libc_fatal>
  4013d4:	f0ffffe0 	adrp	x0, 400000 <__ehdr_start>
  4013d8:	91000000 	add	x0, x0, #0x0
  4013dc:	79406c02 	ldrh	w2, [x0, #54]
  4013e0:	7100e05f 	cmp	w2, #0x38
  4013e4:	54000d80 	b.eq	401594 <__libc_start_main+0x344>  // b.none
  4013e8:	b00002c3 	adrp	x3, 45a000 <ex5_shuffle_pattern+0x7a0>
  4013ec:	900002c1 	adrp	x1, 459000 <free_modules_db>
  4013f0:	900002c0 	adrp	x0, 459000 <free_modules_db>
  4013f4:	9100a063 	add	x3, x3, #0x28
  4013f8:	913dc021 	add	x1, x1, #0xf70
  4013fc:	913e2000 	add	x0, x0, #0xf88
  401400:	52802342 	mov	w2, #0x11a                 	// #282
  401404:	a9025bf5 	stp	x21, x22, [sp, #32]
  401408:	a90363f7 	stp	x23, x24, [sp, #48]
  40140c:	a9046bf9 	stp	x25, x26, [sp, #64]
  401410:	a90573fb 	stp	x27, x28, [sp, #80]
  401414:	9400018f 	bl	401a50 <__assert_fail>
  401418:	9121a2f7 	add	x23, x23, #0x868
  40141c:	8b35d2f5 	add	x21, x23, w21, sxtw #4
  401420:	f94006a1 	ldr	x1, [x21, #8]
  401424:	b100043f 	cmn	x1, #0x1
  401428:	54fff700 	b.eq	401308 <__libc_start_main+0xb8>  // b.none
  40142c:	b00004d5 	adrp	x21, 49a000 <__pthread_keys+0x3148>
  401430:	17ffffbb 	b	40131c <__libc_start_main+0xcc>
  401434:	d0000496 	adrp	x22, 493000 <tunable_list+0x528>
  401438:	940000a6 	bl	4016d0 <__libc_setup_tls>
  40143c:	b0000495 	adrp	x21, 492000 <_nl_C_LC_MONETARY+0x138>
  401440:	f9438ec0 	ldr	x0, [x22, #1816]
  401444:	f9400000 	ldr	x0, [x0]
  401448:	9278dc00 	and	x0, x0, #0xffffffffffffff00
  40144c:	f904f6a0 	str	x0, [x21, #2536]
  401450:	94007754 	bl	41f1a0 <_dl_discover_osversion>
  401454:	37f80ba0 	tbnz	w0, #31, 4015c8 <__libc_start_main+0x378>
  401458:	b00004c1 	adrp	x1, 49a000 <__pthread_keys+0x3148>
  40145c:	b94fe022 	ldr	w2, [x1, #4064]
  401460:	35000ae2 	cbnz	w2, 4015bc <__libc_start_main+0x36c>
  401464:	b90fe020 	str	w0, [x1, #4064]
  401468:	5280dfe1 	mov	w1, #0x6ff                 	// #1791
  40146c:	72a00061 	movk	w1, #0x3, lsl #16
  401470:	6b01001f 	cmp	w0, w1
  401474:	540009ed 	b.le	4015b0 <__libc_start_main+0x360>
  401478:	f946db5a 	ldr	x26, [x26, #3504]
  40147c:	b400005a 	cbz	x26, 401484 <__libc_start_main+0x234>
  401480:	d503201f 	nop
  401484:	f9438ec0 	ldr	x0, [x22, #1816]
  401488:	9127a2b5 	add	x21, x21, #0x9e8
  40148c:	f9400400 	ldr	x0, [x0, #8]
  401490:	f90006a0 	str	x0, [x21, #8]
  401494:	f9403fe0 	ldr	x0, [sp, #120]
  401498:	b4000080 	cbz	x0, 4014a8 <__libc_start_main+0x258>
  40149c:	d2800002 	mov	x2, #0x0                   	// #0
  4014a0:	d2800001 	mov	x1, #0x0                   	// #0
  4014a4:	9400156b 	bl	406a50 <__cxa_atexit>
  4014a8:	52800020 	mov	w0, #0x1                   	// #1
  4014ac:	940077a1 	bl	41f330 <__libc_early_init>
  4014b0:	f94037e0 	ldr	x0, [sp, #104]
  4014b4:	aa1403e1 	mov	x1, x20
  4014b8:	f9478c02 	ldr	x2, [x0, #3864]
  4014bc:	2a1303e0 	mov	w0, w19
  4014c0:	940077d4 	bl	41f410 <__libc_init_first>
  4014c4:	90000000 	adrp	x0, 401000 <pass_bytes+0x90>
  4014c8:	d2800002 	mov	x2, #0x0                   	// #0
  4014cc:	9105c000 	add	x0, x0, #0x170
  4014d0:	d2800001 	mov	x1, #0x0                   	// #0
  4014d4:	9400155f 	bl	406a50 <__cxa_atexit>
  4014d8:	d0000480 	adrp	x0, 493000 <tunable_list+0x528>
  4014dc:	b9474000 	ldr	w0, [x0, #1856]
  4014e0:	350007a0 	cbnz	w0, 4015d4 <__libc_start_main+0x384>
  4014e4:	f94037e0 	ldr	x0, [sp, #104]
  4014e8:	f0000477 	adrp	x23, 490000 <__FRAME_END__+0x105d0>
  4014ec:	f0000478 	adrp	x24, 490000 <__FRAME_END__+0x105d0>
  4014f0:	912142f7 	add	x23, x23, #0x850
  4014f4:	91214318 	add	x24, x24, #0x850
  4014f8:	d2800015 	mov	x21, #0x0                   	// #0
  4014fc:	cb1802f7 	sub	x23, x23, x24
  401500:	f9478c16 	ldr	x22, [x0, #3864]
  401504:	9343fef7 	asr	x23, x23, #3
  401508:	b4000157 	cbz	x23, 401530 <__libc_start_main+0x2e0>
  40150c:	d503201f 	nop
  401510:	f8757b03 	ldr	x3, [x24, x21, lsl #3]
  401514:	aa1603e2 	mov	x2, x22
  401518:	910006b5 	add	x21, x21, #0x1
  40151c:	aa1403e1 	mov	x1, x20
  401520:	2a1303e0 	mov	w0, w19
  401524:	d63f0060 	blr	x3
  401528:	eb1502ff 	cmp	x23, x21
  40152c:	54ffff21 	b.ne	401510 <__libc_start_main+0x2c0>  // b.any
  401530:	f0000477 	adrp	x23, 490000 <__FRAME_END__+0x105d0>
  401534:	f0000478 	adrp	x24, 490000 <__FRAME_END__+0x105d0>
  401538:	912182f7 	add	x23, x23, #0x860
  40153c:	91214318 	add	x24, x24, #0x850
  401540:	cb1802f7 	sub	x23, x23, x24
  401544:	d2800015 	mov	x21, #0x0                   	// #0
  401548:	97fffb4e 	bl	400280 <_init>
  40154c:	9343fef7 	asr	x23, x23, #3
  401550:	b4000157 	cbz	x23, 401578 <__libc_start_main+0x328>
  401554:	d503201f 	nop
  401558:	f8757b03 	ldr	x3, [x24, x21, lsl #3]
  40155c:	aa1603e2 	mov	x2, x22
  401560:	910006b5 	add	x21, x21, #0x1
  401564:	aa1403e1 	mov	x1, x20
  401568:	2a1303e0 	mov	w0, w19
  40156c:	d63f0060 	blr	x3
  401570:	eb1502ff 	cmp	x23, x21
  401574:	54ffff21 	b.ne	401558 <__libc_start_main+0x308>  // b.any
  401578:	d2800001 	mov	x1, #0x0                   	// #0
  40157c:	d2800000 	mov	x0, #0x0                   	// #0
  401580:	94006dfc 	bl	41cd70 <_dl_debug_initialize>
  401584:	f9403be0 	ldr	x0, [sp, #112]
  401588:	aa1403e2 	mov	x2, x20
  40158c:	2a1303e1 	mov	w1, w19
  401590:	97ffff0c 	bl	4011c0 <__libc_start_call_main>
  401594:	f9401002 	ldr	x2, [x0, #32]
  401598:	b00004c3 	adrp	x3, 49a000 <__pthread_keys+0x3148>
  40159c:	79407004 	ldrh	w4, [x0, #56]
  4015a0:	f907c864 	str	x4, [x3, #3984]
  4015a4:	8b000040 	add	x0, x2, x0
  4015a8:	f907cc20 	str	x0, [x1, #3992]
  4015ac:	17ffff3d 	b	4012a0 <__libc_start_main+0x50>
  4015b0:	900002c0 	adrp	x0, 459000 <free_modules_db>
  4015b4:	913fa000 	add	x0, x0, #0xfe8
  4015b8:	940022de 	bl	40a130 <__libc_fatal>
  4015bc:	6b00005f 	cmp	w2, w0
  4015c0:	54fff549 	b.ls	401468 <__libc_start_main+0x218>  // b.plast
  4015c4:	17ffffa8 	b	401464 <__libc_start_main+0x214>
  4015c8:	b00002c0 	adrp	x0, 45a000 <ex5_shuffle_pattern+0x7a0>
  4015cc:	91000000 	add	x0, x0, #0x0
  4015d0:	940022d8 	bl	40a130 <__libc_fatal>
  4015d4:	94000033 	bl	4016a0 <__libc_check_standard_fds>
  4015d8:	17ffffc3 	b	4014e4 <__libc_start_main+0x294>
  4015dc:	d503201f 	nop

00000000004015e0 <check_one_fd>:
  4015e0:	a9b57bfd 	stp	x29, x30, [sp, #-176]!
  4015e4:	910003fd 	mov	x29, sp
  4015e8:	a90153f3 	stp	x19, x20, [sp, #16]
  4015ec:	2a0103f4 	mov	w20, w1
  4015f0:	2a0003f3 	mov	w19, w0
  4015f4:	52800021 	mov	w1, #0x1                   	// #1
  4015f8:	940065b2 	bl	41acc0 <__fcntl64_nocancel>
  4015fc:	3100041f 	cmn	w0, #0x1
  401600:	54000080 	b.eq	401610 <check_one_fd+0x30>  // b.none
  401604:	a94153f3 	ldp	x19, x20, [sp, #16]
  401608:	a8cb7bfd 	ldp	x29, x30, [sp], #176
  40160c:	d65f03c0 	ret
  401610:	d0000480 	adrp	x0, 493000 <tunable_list+0x528>
  401614:	f946f000 	ldr	x0, [x0, #3552]
  401618:	d53bd041 	mrs	x1, tpidr_el0
  40161c:	b8606820 	ldr	w0, [x1, x0]
  401620:	7100241f 	cmp	w0, #0x9
  401624:	54ffff01 	b.ne	401604 <check_one_fd+0x24>  // b.any
  401628:	f90013f5 	str	x21, [sp, #32]
  40162c:	7140229f 	cmp	w20, #0x8, lsl #12
  401630:	54000301 	b.ne	401690 <check_one_fd+0xb0>  // b.any
  401634:	b00002c0 	adrp	x0, 45a000 <ex5_shuffle_pattern+0x7a0>
  401638:	91030000 	add	x0, x0, #0xc0
  40163c:	d2802075 	mov	x21, #0x103                 	// #259
  401640:	2a1403e1 	mov	w1, w20
  401644:	52800002 	mov	w2, #0x0                   	// #0
  401648:	94006606 	bl	41ae60 <__open64_nocancel>
  40164c:	6b00027f 	cmp	w19, w0
  401650:	54000081 	b.ne	401660 <check_one_fd+0x80>  // b.any
  401654:	9100c3e1 	add	x1, sp, #0x30
  401658:	940062ee 	bl	41a210 <__fstat>
  40165c:	34000080 	cbz	w0, 40166c <check_one_fd+0x8c>
  401660:	d4207d00 	brk	#0x3e8
  401664:	d4207d00 	brk	#0x3e8
  401668:	17fffffe 	b	401660 <check_one_fd+0x80>
  40166c:	b94043e0 	ldr	w0, [sp, #64]
  401670:	12140c00 	and	w0, w0, #0xf000
  401674:	7140081f 	cmp	w0, #0x2, lsl #12
  401678:	54ffff41 	b.ne	401660 <check_one_fd+0x80>  // b.any
  40167c:	f9402be0 	ldr	x0, [sp, #80]
  401680:	eb15001f 	cmp	x0, x21
  401684:	54fffee1 	b.ne	401660 <check_one_fd+0x80>  // b.any
  401688:	f94013f5 	ldr	x21, [sp, #32]
  40168c:	17ffffde 	b	401604 <check_one_fd+0x24>
  401690:	b00002c0 	adrp	x0, 45a000 <ex5_shuffle_pattern+0x7a0>
  401694:	d28020f5 	mov	x21, #0x107                 	// #263
  401698:	9102c000 	add	x0, x0, #0xb0
  40169c:	17ffffe9 	b	401640 <check_one_fd+0x60>

00000000004016a0 <__libc_check_standard_fds>:
  4016a0:	a9bf7bfd 	stp	x29, x30, [sp, #-16]!
  4016a4:	52900021 	mov	w1, #0x8001                	// #32769
  4016a8:	52800000 	mov	w0, #0x0                   	// #0
  4016ac:	910003fd 	mov	x29, sp
  4016b0:	97ffffcc 	bl	4015e0 <check_one_fd>
  4016b4:	52900001 	mov	w1, #0x8000                	// #32768
  4016b8:	52800020 	mov	w0, #0x1                   	// #1
  4016bc:	97ffffc9 	bl	4015e0 <check_one_fd>
  4016c0:	a8c17bfd 	ldp	x29, x30, [sp], #16
  4016c4:	52900001 	mov	w1, #0x8000                	// #32768
  4016c8:	52800040 	mov	w0, #0x2                   	// #2
  4016cc:	17ffffc5 	b	4015e0 <check_one_fd>

00000000004016d0 <__libc_setup_tls>:
  4016d0:	a9b87bfd 	stp	x29, x30, [sp, #-128]!
  4016d4:	910003fd 	mov	x29, sp
  4016d8:	a90153f3 	stp	x19, x20, [sp, #16]
  4016dc:	d0000493 	adrp	x19, 493000 <tunable_list+0x528>
  4016e0:	f947f260 	ldr	x0, [x19, #4064]
  4016e4:	a9025bf5 	stp	x21, x22, [sp, #32]
  4016e8:	a90363f7 	stp	x23, x24, [sp, #48]
  4016ec:	a9046bf9 	stp	x25, x26, [sp, #64]
  4016f0:	a90573fb 	stp	x27, x28, [sp, #80]
  4016f4:	f9400018 	ldr	x24, [x0]
  4016f8:	9400704a 	bl	41d820 <__tls_pre_init_tp>
  4016fc:	f9472260 	ldr	x0, [x19, #3648]
  401700:	f9400001 	ldr	x1, [x0]
  401704:	b4000bc1 	cbz	x1, 40187c <__libc_setup_tls+0x1ac>
  401708:	f9479673 	ldr	x19, [x19, #3880]
  40170c:	f9400260 	ldr	x0, [x19]
  401710:	d37df002 	lsl	x2, x0, #3
  401714:	cb000042 	sub	x2, x2, x0
  401718:	8b020c22 	add	x2, x1, x2, lsl #3
  40171c:	eb02003f 	cmp	x1, x2
  401720:	540000a3 	b.cc	401734 <__libc_setup_tls+0x64>  // b.lo, b.ul, b.last
  401724:	14000056 	b	40187c <__libc_setup_tls+0x1ac>
  401728:	9100e021 	add	x1, x1, #0x38
  40172c:	eb02003f 	cmp	x1, x2
  401730:	54000a62 	b.cs	40187c <__libc_setup_tls+0x1ac>  // b.hs, b.nlast
  401734:	b9400020 	ldr	w0, [x1]
  401738:	71001c1f 	cmp	w0, #0x7
  40173c:	54ffff61 	b.ne	401728 <__libc_setup_tls+0x58>  // b.any
  401740:	f940183c 	ldr	x28, [x1, #48]
  401744:	d2800413 	mov	x19, #0x20                  	// #32
  401748:	f9400316 	ldr	x22, [x24]
  40174c:	eb13039f 	cmp	x28, x19
  401750:	f9400822 	ldr	x2, [x1, #16]
  401754:	9a932399 	csel	x25, x28, x19, cs  // cs = hs, nlast
  401758:	d1000723 	sub	x3, x25, #0x1
  40175c:	d2800000 	mov	x0, #0x0                   	// #0
  401760:	8b0202d6 	add	x22, x22, x2
  401764:	cb1903e2 	neg	x2, x25
  401768:	a9060be3 	stp	x3, x2, [sp, #96]
  40176c:	a9425037 	ldp	x23, x20, [x1, #32]
  401770:	94006da4 	bl	41ce00 <_dl_tls_static_surplus_init>
  401774:	f100039f 	cmp	x28, #0x0
  401778:	d2800020 	mov	x0, #0x1                   	// #1
  40177c:	9a801385 	csel	x5, x28, x0, ne  // ne = any
  401780:	540009c0 	b.eq	4018b8 <__libc_setup_tls+0x1e8>  // b.none
  401784:	91003f83 	add	x3, x28, #0xf
  401788:	9ac50863 	udiv	x3, x3, x5
  40178c:	9b057c7a 	mul	x26, x3, x5
  401790:	aa1a03fb 	mov	x27, x26
  401794:	b00004a6 	adrp	x6, 496000 <_IO_strn_jumps+0x88>
  401798:	8b190281 	add	x1, x20, x25
  40179c:	9101a0d3 	add	x19, x6, #0x68
  4017a0:	a90717e6 	stp	x6, x5, [sp, #112]
  4017a4:	f94034c0 	ldr	x0, [x6, #104]
  4017a8:	911f0000 	add	x0, x0, #0x7c0
  4017ac:	8b010000 	add	x0, x0, x1
  4017b0:	8b1a0000 	add	x0, x0, x26
  4017b4:	9400661f 	bl	41b030 <__sbrk>
  4017b8:	911f0015 	add	x21, x0, #0x7c0
  4017bc:	d28007c8 	mov	x8, #0x3e                  	// #62
  4017c0:	f94033e0 	ldr	x0, [sp, #96]
  4017c4:	f9000668 	str	x8, [x19, #8]
  4017c8:	f902431b 	str	x27, [x24, #1152]
  4017cc:	aa1703e2 	mov	x2, x23
  4017d0:	8b0002b5 	add	x21, x21, x0
  4017d4:	aa1603e1 	mov	x1, x22
  4017d8:	f94037e0 	ldr	x0, [sp, #104]
  4017dc:	8a0002b5 	and	x21, x21, x0
  4017e0:	8b1a02a0 	add	x0, x21, x26
  4017e4:	a902fe60 	stp	x0, xzr, [x19, #40]
  4017e8:	97fffab2 	bl	4002b0 <.plt+0x10>
  4017ec:	91006260 	add	x0, x19, #0x18
  4017f0:	f90002a0 	str	x0, [x21]
  4017f4:	d51bd055 	msr	tpidr_el0, x21
  4017f8:	94007012 	bl	41d840 <__tls_init_tp>
  4017fc:	f9021a78 	str	x24, [x19, #1072]
  401800:	91116304 	add	x4, x24, #0x458
  401804:	8b1c0280 	add	x0, x20, x28
  401808:	a94717e6 	ldp	x6, x5, [sp, #112]
  40180c:	f100039f 	cmp	x28, #0x0
  401810:	d1000400 	sub	x0, x0, #0x1
  401814:	a9017094 	stp	x20, x28, [x4, #16]
  401818:	9a941014 	csel	x20, x0, x20, ne  // ne = any
  40181c:	91206263 	add	x3, x19, #0x818
  401820:	a9005c96 	stp	x22, x23, [x4]
  401824:	d2800021 	mov	x1, #0x1                   	// #1
  401828:	9ac50a94 	udiv	x20, x20, x5
  40182c:	91102262 	add	x2, x19, #0x408
  401830:	f94034c0 	ldr	x0, [x6, #104]
  401834:	d2800806 	mov	x6, #0x40                  	// #64
  401838:	a9000861 	stp	x1, x2, [x3]
  40183c:	9b056a94 	madd	x20, x20, x5, x26
  401840:	91007c00 	add	x0, x0, #0x1f
  401844:	a9020479 	stp	x25, x1, [x3, #32]
  401848:	8b140000 	add	x0, x0, x20
  40184c:	927be800 	and	x0, x0, #0xffffffffffffffe0
  401850:	f9024701 	str	x1, [x24, #1160]
  401854:	a9425bf5 	ldp	x21, x22, [sp, #32]
  401858:	a94363f7 	ldp	x23, x24, [sp, #48]
  40185c:	a9446bf9 	ldp	x25, x26, [sp, #64]
  401860:	a94573fb 	ldp	x27, x28, [sp, #80]
  401864:	f9020666 	str	x6, [x19, #1032]
  401868:	f9041660 	str	x0, [x19, #2088]
  40186c:	f9041a74 	str	x20, [x19, #2096]
  401870:	a94153f3 	ldp	x19, x20, [sp, #16]
  401874:	a8c87bfd 	ldp	x29, x30, [sp], #128
  401878:	d65f03c0 	ret
  40187c:	d2800000 	mov	x0, #0x0                   	// #0
  401880:	94006d60 	bl	41ce00 <_dl_tls_static_surplus_init>
  401884:	928003e0 	mov	x0, #0xffffffffffffffe0    	// #-32
  401888:	d280021b 	mov	x27, #0x10                  	// #16
  40188c:	d2800025 	mov	x5, #0x1                   	// #1
  401890:	aa1b03fa 	mov	x26, x27
  401894:	d2800419 	mov	x25, #0x20                  	// #32
  401898:	d280001c 	mov	x28, #0x0                   	// #0
  40189c:	d2800016 	mov	x22, #0x0                   	// #0
  4018a0:	d2800017 	mov	x23, #0x0                   	// #0
  4018a4:	d2800014 	mov	x20, #0x0                   	// #0
  4018a8:	f90037e0 	str	x0, [sp, #104]
  4018ac:	d28003e0 	mov	x0, #0x1f                  	// #31
  4018b0:	f90033e0 	str	x0, [sp, #96]
  4018b4:	17ffffb8 	b	401794 <__libc_setup_tls+0xc4>
  4018b8:	d280021b 	mov	x27, #0x10                  	// #16
  4018bc:	aa0003e5 	mov	x5, x0
  4018c0:	aa1303f9 	mov	x25, x19
  4018c4:	aa1b03fa 	mov	x26, x27
  4018c8:	17ffffb3 	b	401794 <__libc_setup_tls+0xc4>
  4018cc:	d503201f 	nop

00000000004018d0 <__tls_get_addr>:
  4018d0:	d53bd041 	mrs	x1, tpidr_el0
  4018d4:	f9400400 	ldr	x0, [x0, #8]
  4018d8:	f9400021 	ldr	x1, [x1]
  4018dc:	f9400821 	ldr	x1, [x1, #16]
  4018e0:	8b000020 	add	x0, x1, x0
  4018e4:	d65f03c0 	ret
  4018e8:	d503201f 	nop
  4018ec:	d503201f 	nop

00000000004018f0 <__assert_fail_base>:
  4018f0:	d101c3ff 	sub	sp, sp, #0x70
  4018f4:	a9017bfd 	stp	x29, x30, [sp, #16]
  4018f8:	910043fd 	add	x29, sp, #0x10
  4018fc:	a90253f3 	stp	x19, x20, [sp, #32]
  401900:	d0000493 	adrp	x19, 493000 <tunable_list+0x528>
  401904:	aa0403f4 	mov	x20, x4
  401908:	f945fa65 	ldr	x5, [x19, #3056]
  40190c:	a9035bf5 	stp	x21, x22, [sp, #48]
  401910:	aa0003f5 	mov	x21, x0
  401914:	a90463f7 	stp	x23, x24, [sp, #64]
  401918:	aa0203f6 	mov	x22, x2
  40191c:	2a0303f7 	mov	w23, w3
  401920:	f94000a0 	ldr	x0, [x5]
  401924:	f90037e0 	str	x0, [sp, #104]
  401928:	d2800000 	mov	x0, #0x0                   	// #0
  40192c:	aa0103f8 	mov	x24, x1
  401930:	52800020 	mov	w0, #0x1                   	// #1
  401934:	d2800001 	mov	x1, #0x0                   	// #0
  401938:	94003932 	bl	40fe00 <__pthread_setcancelstate>
  40193c:	f946ea60 	ldr	x0, [x19, #3536]
  401940:	d0000346 	adrp	x6, 46b000 <translit_from_idx+0xe20>
  401944:	b00002c7 	adrp	x7, 45a000 <ex5_shuffle_pattern+0x7a0>
  401948:	913800c6 	add	x6, x6, #0xe00
  40194c:	910340e7 	add	x7, x7, #0xd0
  401950:	f9400002 	ldr	x2, [x0]
  401954:	39400040 	ldrb	w0, [x2]
  401958:	7100001f 	cmp	w0, #0x0
  40195c:	9a8610e3 	csel	x3, x7, x6, ne  // ne = any
  401960:	b40006f4 	cbz	x20, 401a3c <__assert_fail_base+0x14c>
  401964:	910173e0 	add	x0, sp, #0x5c
  401968:	a90003f8 	stp	x24, x0, [sp]
  40196c:	aa1403e6 	mov	x6, x20
  401970:	2a1703e5 	mov	w5, w23
  401974:	aa1603e4 	mov	x4, x22
  401978:	aa1503e1 	mov	x1, x21
  40197c:	910183e0 	add	x0, sp, #0x60
  401980:	940015ec 	bl	407130 <___asprintf>
  401984:	37f80500 	tbnz	w0, #31, 401a24 <__assert_fail_base+0x134>
  401988:	f94033e2 	ldr	x2, [sp, #96]
  40198c:	b00002c1 	adrp	x1, 45a000 <ex5_shuffle_pattern+0x7a0>
  401990:	d2800000 	mov	x0, #0x0                   	// #0
  401994:	91036021 	add	x1, x1, #0xd8
  401998:	940016ca 	bl	4074c0 <__fxprintf>
  40199c:	f9476660 	ldr	x0, [x19, #3784]
  4019a0:	f9400000 	ldr	x0, [x0]
  4019a4:	940017e7 	bl	407940 <_IO_fflush>
  4019a8:	f947da73 	ldr	x19, [x19, #4016]
  4019ac:	d2800005 	mov	x5, #0x0                   	// #0
  4019b0:	b9405fe1 	ldr	w1, [sp, #92]
  4019b4:	12800004 	mov	w4, #0xffffffff            	// #-1
  4019b8:	52800443 	mov	w3, #0x22                  	// #34
  4019bc:	52800062 	mov	w2, #0x3                   	// #3
  4019c0:	f9400266 	ldr	x6, [x19]
  4019c4:	d2800000 	mov	x0, #0x0                   	// #0
  4019c8:	0b060021 	add	w1, w1, w6
  4019cc:	4b0603e6 	neg	w6, w6
  4019d0:	0a060021 	and	w1, w1, w6
  4019d4:	b9005fe1 	str	w1, [sp, #92]
  4019d8:	93407c21 	sxtw	x1, w1
  4019dc:	940065ed 	bl	41b190 <__mmap64>
  4019e0:	aa0003f3 	mov	x19, x0
  4019e4:	b100041f 	cmn	x0, #0x1
  4019e8:	54000180 	b.eq	401a18 <__assert_fail_base+0x128>  // b.none
  4019ec:	b9405fe2 	ldr	w2, [sp, #92]
  4019f0:	f94033e1 	ldr	x1, [sp, #96]
  4019f4:	b8004402 	str	w2, [x0], #4
  4019f8:	94005102 	bl	415e00 <strcpy>
  4019fc:	b00004a1 	adrp	x1, 496000 <_IO_strn_jumps+0x88>
  401a00:	aa1303e0 	mov	x0, x19
  401a04:	91286021 	add	x1, x1, #0xa18
  401a08:	940147da 	bl	453970 <__aarch64_swp8_acq>
  401a0c:	b4000060 	cbz	x0, 401a18 <__assert_fail_base+0x128>
  401a10:	b9400001 	ldr	w1, [x0]
  401a14:	940065fb 	bl	41b200 <__munmap>
  401a18:	f94033e0 	ldr	x0, [sp, #96]
  401a1c:	94004b25 	bl	4146b0 <__free>
  401a20:	97fffa48 	bl	400340 <abort>
  401a24:	b00002c1 	adrp	x1, 45a000 <ex5_shuffle_pattern+0x7a0>
  401a28:	91044021 	add	x1, x1, #0x110
  401a2c:	d2800242 	mov	x2, #0x12                  	// #18
  401a30:	52800040 	mov	w0, #0x2                   	// #2
  401a34:	9400629f 	bl	41a4b0 <__libc_write>
  401a38:	97fffa42 	bl	400340 <abort>
  401a3c:	aa0603f4 	mov	x20, x6
  401a40:	aa0603e7 	mov	x7, x6
  401a44:	17ffffc8 	b	401964 <__assert_fail_base+0x74>
  401a48:	d503201f 	nop
  401a4c:	d503201f 	nop

0000000000401a50 <__assert_fail>:
  401a50:	a9bd7bfd 	stp	x29, x30, [sp, #-48]!
  401a54:	910003fd 	mov	x29, sp
  401a58:	a90153f3 	stp	x19, x20, [sp, #16]
  401a5c:	aa0003f3 	mov	x19, x0
  401a60:	aa0103f4 	mov	x20, x1
  401a64:	d0000340 	adrp	x0, 46b000 <translit_from_idx+0xe20>
  401a68:	b00002c1 	adrp	x1, 45a000 <ex5_shuffle_pattern+0x7a0>
  401a6c:	912f4000 	add	x0, x0, #0xbd0
  401a70:	91038021 	add	x1, x1, #0xe0
  401a74:	a9025bf5 	stp	x21, x22, [sp, #32]
  401a78:	aa0303f6 	mov	x22, x3
  401a7c:	2a0203f5 	mov	w21, w2
  401a80:	528000a2 	mov	w2, #0x5                   	// #5
  401a84:	94000007 	bl	401aa0 <__dcgettext>
  401a88:	aa1603e4 	mov	x4, x22
  401a8c:	2a1503e3 	mov	w3, w21
  401a90:	aa1403e2 	mov	x2, x20
  401a94:	aa1303e1 	mov	x1, x19
  401a98:	97ffff96 	bl	4018f0 <__assert_fail_base>
  401a9c:	d503201f 	nop

0000000000401aa0 <__dcgettext>:
  401aa0:	2a0203e5 	mov	w5, w2
  401aa4:	d2800004 	mov	x4, #0x0                   	// #0
  401aa8:	52800003 	mov	w3, #0x0                   	// #0
  401aac:	d2800002 	mov	x2, #0x0                   	// #0
  401ab0:	140002c0 	b	4025b0 <__dcigettext>
  401ab4:	d503201f 	nop
  401ab8:	d503201f 	nop
  401abc:	d503201f 	nop

0000000000401ac0 <plural_eval>:
  401ac0:	a9bd7bfd 	stp	x29, x30, [sp, #-48]!
  401ac4:	910003fd 	mov	x29, sp
  401ac8:	a90153f3 	stp	x19, x20, [sp, #16]
  401acc:	aa0003f3 	mov	x19, x0
  401ad0:	aa0103f4 	mov	x20, x1
  401ad4:	f90013f5 	str	x21, [sp, #32]
  401ad8:	b9400260 	ldr	w0, [x19]
  401adc:	7100081f 	cmp	w0, #0x2
  401ae0:	54000360 	b.eq	401b4c <plural_eval+0x8c>  // b.none
  401ae4:	540001cc 	b.gt	401b1c <plural_eval+0x5c>
  401ae8:	340006c0 	cbz	w0, 401bc0 <plural_eval+0x100>
  401aec:	7100041f 	cmp	w0, #0x1
  401af0:	54000721 	b.ne	401bd4 <plural_eval+0x114>  // b.any
  401af4:	f9400660 	ldr	x0, [x19, #8]
  401af8:	aa1403e1 	mov	x1, x20
  401afc:	97fffff1 	bl	401ac0 <plural_eval>
  401b00:	f100001f 	cmp	x0, #0x0
  401b04:	9a9f17f5 	cset	x21, eq  // eq = none
  401b08:	aa1503e0 	mov	x0, x21
  401b0c:	a94153f3 	ldp	x19, x20, [sp, #16]
  401b10:	f94013f5 	ldr	x21, [sp, #32]
  401b14:	a8c37bfd 	ldp	x29, x30, [sp], #48
  401b18:	d65f03c0 	ret
  401b1c:	aa1403e1 	mov	x1, x20
  401b20:	71000c1f 	cmp	w0, #0x3
  401b24:	54000581 	b.ne	401bd4 <plural_eval+0x114>  // b.any
  401b28:	f9400660 	ldr	x0, [x19, #8]
  401b2c:	97ffffe5 	bl	401ac0 <plural_eval>
  401b30:	f100001f 	cmp	x0, #0x0
  401b34:	9a9f17e0 	cset	x0, eq  // eq = none
  401b38:	8b000e60 	add	x0, x19, x0, lsl #3
  401b3c:	f9400813 	ldr	x19, [x0, #16]
  401b40:	b9400260 	ldr	w0, [x19]
  401b44:	7100081f 	cmp	w0, #0x2
  401b48:	54fffce1 	b.ne	401ae4 <plural_eval+0x24>  // b.any
  401b4c:	f9400660 	ldr	x0, [x19, #8]
  401b50:	aa1403e1 	mov	x1, x20
  401b54:	97ffffdb 	bl	401ac0 <plural_eval>
  401b58:	aa0003f5 	mov	x21, x0
  401b5c:	b9400661 	ldr	w1, [x19, #4]
  401b60:	71003c3f 	cmp	w1, #0xf
  401b64:	54000480 	b.eq	401bf4 <plural_eval+0x134>  // b.none
  401b68:	7100383f 	cmp	w1, #0xe
  401b6c:	540007a0 	b.eq	401c60 <plural_eval+0x1a0>  // b.none
  401b70:	f9400a60 	ldr	x0, [x19, #16]
  401b74:	aa1403e1 	mov	x1, x20
  401b78:	97ffffd2 	bl	401ac0 <plural_eval>
  401b7c:	b9400661 	ldr	w1, [x19, #4]
  401b80:	aa0003f3 	mov	x19, x0
  401b84:	7100203f 	cmp	w1, #0x8
  401b88:	54000900 	b.eq	401ca8 <plural_eval+0x1e8>  // b.none
  401b8c:	54000488 	b.hi	401c1c <plural_eval+0x15c>  // b.pmore
  401b90:	7100143f 	cmp	w1, #0x5
  401b94:	54000820 	b.eq	401c98 <plural_eval+0x1d8>  // b.none
  401b98:	54000349 	b.ls	401c00 <plural_eval+0x140>  // b.plast
  401b9c:	cb0002a0 	sub	x0, x21, x0
  401ba0:	7100183f 	cmp	w1, #0x6
  401ba4:	8b1302b5 	add	x21, x21, x19
  401ba8:	9a8002b5 	csel	x21, x21, x0, eq  // eq = none
  401bac:	aa1503e0 	mov	x0, x21
  401bb0:	a94153f3 	ldp	x19, x20, [sp, #16]
  401bb4:	f94013f5 	ldr	x21, [sp, #32]
  401bb8:	a8c37bfd 	ldp	x29, x30, [sp], #48
  401bbc:	d65f03c0 	ret
  401bc0:	b9400660 	ldr	w0, [x19, #4]
  401bc4:	aa1403f5 	mov	x21, x20
  401bc8:	34fffa00 	cbz	w0, 401b08 <plural_eval+0x48>
  401bcc:	7100041f 	cmp	w0, #0x1
  401bd0:	540000e0 	b.eq	401bec <plural_eval+0x12c>  // b.none
  401bd4:	d2800015 	mov	x21, #0x0                   	// #0
  401bd8:	aa1503e0 	mov	x0, x21
  401bdc:	a94153f3 	ldp	x19, x20, [sp, #16]
  401be0:	f94013f5 	ldr	x21, [sp, #32]
  401be4:	a8c37bfd 	ldp	x29, x30, [sp], #48
  401be8:	d65f03c0 	ret
  401bec:	f9400675 	ldr	x21, [x19, #8]
  401bf0:	17ffffc6 	b	401b08 <plural_eval+0x48>
  401bf4:	b4000380 	cbz	x0, 401c64 <plural_eval+0x1a4>
  401bf8:	d2800035 	mov	x21, #0x1                   	// #1
  401bfc:	17ffffc3 	b	401b08 <plural_eval+0x48>
  401c00:	71000c3f 	cmp	w1, #0x3
  401c04:	54000580 	b.eq	401cb4 <plural_eval+0x1f4>  // b.none
  401c08:	7100103f 	cmp	w1, #0x4
  401c0c:	54fffe41 	b.ne	401bd4 <plural_eval+0x114>  // b.any
  401c10:	b4000360 	cbz	x0, 401c7c <plural_eval+0x1bc>
  401c14:	9ad30ab5 	udiv	x21, x21, x19
  401c18:	17ffffbc 	b	401b08 <plural_eval+0x48>
  401c1c:	71002c3f 	cmp	w1, #0xb
  401c20:	54000360 	b.eq	401c8c <plural_eval+0x1cc>  // b.none
  401c24:	54000109 	b.ls	401c44 <plural_eval+0x184>  // b.plast
  401c28:	7100303f 	cmp	w1, #0xc
  401c2c:	54000480 	b.eq	401cbc <plural_eval+0x1fc>  // b.none
  401c30:	7100343f 	cmp	w1, #0xd
  401c34:	54fffd01 	b.ne	401bd4 <plural_eval+0x114>  // b.any
  401c38:	eb0002bf 	cmp	x21, x0
  401c3c:	9a9f07f5 	cset	x21, ne  // ne = any
  401c40:	17ffffb2 	b	401b08 <plural_eval+0x48>
  401c44:	7100243f 	cmp	w1, #0x9
  401c48:	54000400 	b.eq	401cc8 <plural_eval+0x208>  // b.none
  401c4c:	7100283f 	cmp	w1, #0xa
  401c50:	54fffc21 	b.ne	401bd4 <plural_eval+0x114>  // b.any
  401c54:	eb0002bf 	cmp	x21, x0
  401c58:	9a9f87f5 	cset	x21, ls  // ls = plast
  401c5c:	17ffffab 	b	401b08 <plural_eval+0x48>
  401c60:	b4fff540 	cbz	x0, 401b08 <plural_eval+0x48>
  401c64:	f9400a60 	ldr	x0, [x19, #16]
  401c68:	aa1403e1 	mov	x1, x20
  401c6c:	97ffff95 	bl	401ac0 <plural_eval>
  401c70:	f100001f 	cmp	x0, #0x0
  401c74:	9a9f07f5 	cset	x21, ne  // ne = any
  401c78:	17ffffa4 	b	401b08 <plural_eval+0x48>
  401c7c:	52800100 	mov	w0, #0x8                   	// #8
  401c80:	9400106c 	bl	405e30 <raise>
  401c84:	9ad30ab5 	udiv	x21, x21, x19
  401c88:	17ffffa0 	b	401b08 <plural_eval+0x48>
  401c8c:	eb0002bf 	cmp	x21, x0
  401c90:	9a9f37f5 	cset	x21, cs  // cs = hs, nlast
  401c94:	17ffff9d 	b	401b08 <plural_eval+0x48>
  401c98:	b40001e0 	cbz	x0, 401cd4 <plural_eval+0x214>
  401c9c:	9ad30aa0 	udiv	x0, x21, x19
  401ca0:	9b13d415 	msub	x21, x0, x19, x21
  401ca4:	17ffff99 	b	401b08 <plural_eval+0x48>
  401ca8:	eb0002bf 	cmp	x21, x0
  401cac:	9a9f27f5 	cset	x21, cc  // cc = lo, ul, last
  401cb0:	17ffff96 	b	401b08 <plural_eval+0x48>
  401cb4:	9b007eb5 	mul	x21, x21, x0
  401cb8:	17ffff94 	b	401b08 <plural_eval+0x48>
  401cbc:	eb0002bf 	cmp	x21, x0
  401cc0:	9a9f17f5 	cset	x21, eq  // eq = none
  401cc4:	17ffff91 	b	401b08 <plural_eval+0x48>
  401cc8:	eb0002bf 	cmp	x21, x0
  401ccc:	9a9f97f5 	cset	x21, hi  // hi = pmore
  401cd0:	17ffff8e 	b	401b08 <plural_eval+0x48>
  401cd4:	52800100 	mov	w0, #0x8                   	// #8
  401cd8:	94001056 	bl	405e30 <raise>
  401cdc:	17fffff0 	b	401c9c <plural_eval+0x1dc>

0000000000401ce0 <transcmp>:
  401ce0:	a9be7bfd 	stp	x29, x30, [sp, #-32]!
  401ce4:	910003fd 	mov	x29, sp
  401ce8:	a90153f3 	stp	x19, x20, [sp, #16]
  401cec:	aa0003f4 	mov	x20, x0
  401cf0:	aa0103f3 	mov	x19, x1
  401cf4:	f9401000 	ldr	x0, [x0, #32]
  401cf8:	b40002e0 	cbz	x0, 401d54 <transcmp+0x74>
  401cfc:	9100e280 	add	x0, x20, #0x38
  401d00:	f9401261 	ldr	x1, [x19, #32]
  401d04:	b4000241 	cbz	x1, 401d4c <transcmp+0x6c>
  401d08:	9100e261 	add	x1, x19, #0x38
  401d0c:	94004fed 	bl	415cc0 <strcmp>
  401d10:	35000180 	cbnz	w0, 401d40 <transcmp+0x60>
  401d14:	f9400261 	ldr	x1, [x19]
  401d18:	f9400280 	ldr	x0, [x20]
  401d1c:	94004fe9 	bl	415cc0 <strcmp>
  401d20:	35000100 	cbnz	w0, 401d40 <transcmp+0x60>
  401d24:	f9400a61 	ldr	x1, [x19, #16]
  401d28:	f9400a80 	ldr	x0, [x20, #16]
  401d2c:	94004fe5 	bl	415cc0 <strcmp>
  401d30:	35000080 	cbnz	w0, 401d40 <transcmp+0x60>
  401d34:	b9400a61 	ldr	w1, [x19, #8]
  401d38:	b9400a80 	ldr	w0, [x20, #8]
  401d3c:	4b010000 	sub	w0, w0, w1
  401d40:	a94153f3 	ldp	x19, x20, [sp, #16]
  401d44:	a8c27bfd 	ldp	x29, x30, [sp], #32
  401d48:	d65f03c0 	ret
  401d4c:	f9401e61 	ldr	x1, [x19, #56]
  401d50:	17ffffef 	b	401d0c <transcmp+0x2c>
  401d54:	f9401e80 	ldr	x0, [x20, #56]
  401d58:	17ffffea 	b	401d00 <transcmp+0x20>
  401d5c:	d503201f 	nop

0000000000401d60 <_nl_find_msg>:
  401d60:	a9b37bfd 	stp	x29, x30, [sp, #-208]!
  401d64:	d0000487 	adrp	x7, 493000 <tunable_list+0x528>
  401d68:	910003fd 	mov	x29, sp
  401d6c:	f945f8e6 	ldr	x6, [x7, #3056]
  401d70:	a90153f3 	stp	x19, x20, [sp, #16]
  401d74:	b9400805 	ldr	w5, [x0, #8]
  401d78:	a9025bf5 	stp	x21, x22, [sp, #32]
  401d7c:	a90363f7 	stp	x23, x24, [sp, #48]
  401d80:	aa0203f8 	mov	x24, x2
  401d84:	a9046bf9 	stp	x25, x26, [sp, #64]
  401d88:	a90573fb 	stp	x27, x28, [sp, #80]
  401d8c:	d10043ff 	sub	sp, sp, #0x10
  401d90:	a90803a7 	stp	x7, x0, [x29, #128]
  401d94:	f94000c8 	ldr	x8, [x6]
  401d98:	f90067a8 	str	x8, [x29, #200]
  401d9c:	d2800008 	mov	x8, #0x0                   	// #0
  401da0:	a90693a1 	stp	x1, x4, [x29, #104]
  401da4:	b9007ba3 	str	w3, [x29, #120]
  401da8:	710000bf 	cmp	w5, #0x0
  401dac:	540010ed 	b.le	401fc8 <_nl_find_msg+0x268>
  401db0:	f94047a0 	ldr	x0, [x29, #136]
  401db4:	f9400817 	ldr	x23, [x0, #16]
  401db8:	b4000d77 	cbz	x23, 401f64 <_nl_find_msg+0x204>
  401dbc:	f94032e0 	ldr	x0, [x23, #96]
  401dc0:	b9402af3 	ldr	w19, [x23, #40]
  401dc4:	b40009e0 	cbz	x0, 401f00 <_nl_find_msg+0x1a0>
  401dc8:	aa1803e0 	mov	x0, x24
  401dcc:	97fff94d 	bl	400300 <.plt+0x60>
  401dd0:	aa0003fa 	mov	x26, x0
  401dd4:	aa1803e0 	mov	x0, x24
  401dd8:	94000fb6 	bl	405cb0 <__hash_string>
  401ddc:	b9406af4 	ldr	w20, [x23, #104]
  401de0:	b9405ae3 	ldr	w3, [x23, #88]
  401de4:	92407f42 	and	x2, x26, #0xffffffff
  401de8:	f9004ba2 	str	x2, [x29, #144]
  401dec:	51000861 	sub	w1, w3, #0x2
  401df0:	b9009bba 	str	w26, [x29, #152]
  401df4:	f94032f5 	ldr	x21, [x23, #96]
  401df8:	1ac10804 	udiv	w4, w0, w1
  401dfc:	1ac30802 	udiv	w2, w0, w3
  401e00:	1b018084 	msub	w4, w4, w1, w0
  401e04:	11000499 	add	w25, w4, #0x1
  401e08:	1b03805a 	msub	w26, w2, w3, w0
  401e0c:	4b19007b 	sub	w27, w3, w25
  401e10:	4b030336 	sub	w22, w25, w3
  401e14:	14000016 	b	401e6c <_nl_find_msg+0x10c>
  401e18:	b9401aea 	ldr	w10, [x23, #24]
  401e1c:	d37d7f80 	ubfiz	x0, x28, #3, #32
  401e20:	f9401ae1 	ldr	x1, [x23, #48]
  401e24:	8b00002b 	add	x11, x1, x0
  401e28:	b8606820 	ldr	w0, [x1, x0]
  401e2c:	34000c2a 	cbz	w10, 401fb0 <_nl_find_msg+0x250>
  401e30:	b9409ba1 	ldr	w1, [x29, #152]
  401e34:	5ac00800 	rev	w0, w0
  401e38:	6b00003f 	cmp	w1, w0
  401e3c:	54000108 	b.hi	401e5c <_nl_find_msg+0xfc>  // b.pmore
  401e40:	b9400560 	ldr	w0, [x11, #4]
  401e44:	f94002e1 	ldr	x1, [x23]
  401e48:	5ac00800 	rev	w0, w0
  401e4c:	8b000021 	add	x1, x1, x0
  401e50:	aa1803e0 	mov	x0, x24
  401e54:	94004f9b 	bl	415cc0 <strcmp>
  401e58:	34000320 	cbz	w0, 401ebc <_nl_find_msg+0x15c>
  401e5c:	6b1a037f 	cmp	w27, w26
  401e60:	0b160340 	add	w0, w26, w22
  401e64:	0b190342 	add	w2, w26, w25
  401e68:	1a80805a 	csel	w26, w2, w0, hi  // hi = pmore
  401e6c:	b87a5aa1 	ldr	w1, [x21, w26, uxtw #2]
  401e70:	7100029f 	cmp	w20, #0x0
  401e74:	5ac00820 	rev	w0, w1
  401e78:	1a811001 	csel	w1, w0, w1, ne  // ne = any
  401e7c:	34000741 	cbz	w1, 401f64 <_nl_find_msg+0x204>
  401e80:	5100043c 	sub	w28, w1, #0x1
  401e84:	6b1c027f 	cmp	w19, w28
  401e88:	54fffc88 	b.hi	401e18 <_nl_find_msg+0xb8>  // b.pmore
  401e8c:	4b130380 	sub	w0, w28, w19
  401e90:	f94026e1 	ldr	x1, [x23, #72]
  401e94:	d37cec00 	lsl	x0, x0, #4
  401e98:	8b000026 	add	x6, x1, x0
  401e9c:	f8606820 	ldr	x0, [x1, x0]
  401ea0:	f9404ba1 	ldr	x1, [x29, #144]
  401ea4:	eb01001f 	cmp	x0, x1
  401ea8:	54fffda9 	b.ls	401e5c <_nl_find_msg+0xfc>  // b.plast
  401eac:	f94004c1 	ldr	x1, [x6, #8]
  401eb0:	aa1803e0 	mov	x0, x24
  401eb4:	94004f83 	bl	415cc0 <strcmp>
  401eb8:	35fffd20 	cbnz	w0, 401e5c <_nl_find_msg+0xfc>
  401ebc:	aa1c03f6 	mov	x22, x28
  401ec0:	2a1303fa 	mov	w26, w19
  401ec4:	eb16035f 	cmp	x26, x22
  401ec8:	54000848 	b.hi	401fd0 <_nl_find_msg+0x270>  // b.pmore
  401ecc:	cb1a02da 	sub	x26, x22, x26
  401ed0:	f9402ae0 	ldr	x0, [x23, #80]
  401ed4:	d37cef5a 	lsl	x26, x26, #4
  401ed8:	8b1a0001 	add	x1, x0, x26
  401edc:	f87a6800 	ldr	x0, [x0, x26]
  401ee0:	f9004fa0 	str	x0, [x29, #152]
  401ee4:	f9400438 	ldr	x24, [x1, #8]
  401ee8:	b9407ba0 	ldr	w0, [x29, #120]
  401eec:	350008e0 	cbnz	w0, 402008 <_nl_find_msg+0x2a8>
  401ef0:	f9403ba0 	ldr	x0, [x29, #112]
  401ef4:	f9404fa1 	ldr	x1, [x29, #152]
  401ef8:	f9000001 	str	x1, [x0]
  401efc:	1400001b 	b	401f68 <_nl_find_msg+0x208>
  401f00:	2a1303fa 	mov	w26, w19
  401f04:	d280001b 	mov	x27, #0x0                   	// #0
  401f08:	aa1a03fc 	mov	x28, x26
  401f0c:	d503201f 	nop
  401f10:	eb1b039f 	cmp	x28, x27
  401f14:	54000289 	b.ls	401f64 <_nl_find_msg+0x204>  // b.plast
  401f18:	8b1b0386 	add	x6, x28, x27
  401f1c:	b9401ae0 	ldr	w0, [x23, #24]
  401f20:	f9401ae2 	ldr	x2, [x23, #48]
  401f24:	d341fcd6 	lsr	x22, x6, #1
  401f28:	7100001f 	cmp	w0, #0x0
  401f2c:	aa1803e0 	mov	x0, x24
  401f30:	f94002e1 	ldr	x1, [x23]
  401f34:	8b160c42 	add	x2, x2, x22, lsl #3
  401f38:	b9400442 	ldr	w2, [x2, #4]
  401f3c:	5ac00843 	rev	w3, w2
  401f40:	1a830042 	csel	w2, w2, w3, eq  // eq = none
  401f44:	8b020021 	add	x1, x1, x2
  401f48:	94004f5e 	bl	415cc0 <strcmp>
  401f4c:	7100001f 	cmp	w0, #0x0
  401f50:	540002cb 	b.lt	401fa8 <_nl_find_msg+0x248>  // b.tstop
  401f54:	54fffb80 	b.eq	401ec4 <_nl_find_msg+0x164>  // b.none
  401f58:	910006db 	add	x27, x22, #0x1
  401f5c:	eb1b039f 	cmp	x28, x27
  401f60:	54fffdc8 	b.hi	401f18 <_nl_find_msg+0x1b8>  // b.pmore
  401f64:	d2800018 	mov	x24, #0x0                   	// #0
  401f68:	f94043a0 	ldr	x0, [x29, #128]
  401f6c:	f945f814 	ldr	x20, [x0, #3056]
  401f70:	f94067a0 	ldr	x0, [x29, #200]
  401f74:	f9400281 	ldr	x1, [x20]
  401f78:	eb010000 	subs	x0, x0, x1
  401f7c:	d2800001 	mov	x1, #0x0                   	// #0
  401f80:	54003101 	b.ne	4025a0 <_nl_find_msg+0x840>  // b.any
  401f84:	910003bf 	mov	sp, x29
  401f88:	aa1803e0 	mov	x0, x24
  401f8c:	a94153f3 	ldp	x19, x20, [sp, #16]
  401f90:	a9425bf5 	ldp	x21, x22, [sp, #32]
  401f94:	a94363f7 	ldp	x23, x24, [sp, #48]
  401f98:	a9446bf9 	ldp	x25, x26, [sp, #64]
  401f9c:	a94573fb 	ldp	x27, x28, [sp, #80]
  401fa0:	a8cd7bfd 	ldp	x29, x30, [sp], #208
  401fa4:	d65f03c0 	ret
  401fa8:	aa1603fc 	mov	x28, x22
  401fac:	17ffffd9 	b	401f10 <_nl_find_msg+0x1b0>
  401fb0:	b9409ba1 	ldr	w1, [x29, #152]
  401fb4:	6b00003f 	cmp	w1, w0
  401fb8:	54fff528 	b.hi	401e5c <_nl_find_msg+0xfc>  // b.pmore
  401fbc:	b9400560 	ldr	w0, [x11, #4]
  401fc0:	f94002e1 	ldr	x1, [x23]
  401fc4:	17ffffa2 	b	401e4c <_nl_find_msg+0xec>
  401fc8:	94000402 	bl	402fd0 <_nl_load_domain>
  401fcc:	17ffff79 	b	401db0 <_nl_find_msg+0x50>
  401fd0:	f9401ee1 	ldr	x1, [x23, #56]
  401fd4:	d37df2c0 	lsl	x0, x22, #3
  401fd8:	b9401ae2 	ldr	w2, [x23, #24]
  401fdc:	8b000023 	add	x3, x1, x0
  401fe0:	b860683b 	ldr	w27, [x1, x0]
  401fe4:	f94002f8 	ldr	x24, [x23]
  401fe8:	b9400460 	ldr	w0, [x3, #4]
  401fec:	34000702 	cbz	w2, 4020cc <_nl_find_msg+0x36c>
  401ff0:	5ac00800 	rev	w0, w0
  401ff4:	5ac00b7b 	rev	w27, w27
  401ff8:	8b000318 	add	x24, x24, x0
  401ffc:	11000760 	add	w0, w27, #0x1
  402000:	f9004fa0 	str	x0, [x29, #152]
  402004:	17ffffb9 	b	401ee8 <_nl_find_msg+0x188>
  402008:	f94037a0 	ldr	x0, [x29, #104]
  40200c:	b4000460 	cbz	x0, 402098 <_nl_find_msg+0x338>
  402010:	f9400819 	ldr	x25, [x0, #16]
  402014:	b4000439 	cbz	x25, 402098 <_nl_find_msg+0x338>
  402018:	910202e0 	add	x0, x23, #0x80
  40201c:	f90033a0 	str	x0, [x29, #96]
  402020:	94003518 	bl	40f480 <___pthread_rwlock_rdlock>
  402024:	f9403efb 	ldr	x27, [x23, #120]
  402028:	8b1b0762 	add	x2, x27, x27, lsl #1
  40202c:	d37df042 	lsl	x2, x2, #3
  402030:	d100605c 	sub	x28, x2, #0x18
  402034:	d503201f 	nop
  402038:	b4000f3b 	cbz	x27, 40221c <_nl_find_msg+0x4bc>
  40203c:	f9403ae0 	ldr	x0, [x23, #112]
  402040:	d100077b 	sub	x27, x27, #0x1
  402044:	aa1903e1 	mov	x1, x25
  402048:	8b1c001a 	add	x26, x0, x28
  40204c:	f87c6800 	ldr	x0, [x0, x28]
  402050:	d100639c 	sub	x28, x28, #0x18
  402054:	94004f1b 	bl	415cc0 <strcmp>
  402058:	35ffff00 	cbnz	w0, 402038 <_nl_find_msg+0x2d8>
  40205c:	f94033a0 	ldr	x0, [x29, #96]
  402060:	940035b4 	bl	40f730 <___pthread_rwlock_unlock>
  402064:	f9400740 	ldr	x0, [x26, #8]
  402068:	b100041f 	cmn	x0, #0x1
  40206c:	54fff420 	b.eq	401ef0 <_nl_find_msg+0x190>  // b.none
  402070:	f9400b40 	ldr	x0, [x26, #16]
  402074:	b4001c80 	cbz	x0, 402404 <_nl_find_msg+0x6a4>
  402078:	b100041f 	cmn	x0, #0x1
  40207c:	54001f00 	b.eq	40245c <_nl_find_msg+0x6fc>  // b.none
  402080:	f8767800 	ldr	x0, [x0, x22, lsl #3]
  402084:	b4000480 	cbz	x0, 402114 <_nl_find_msg+0x3b4>
  402088:	aa0003f8 	mov	x24, x0
  40208c:	f8408700 	ldr	x0, [x24], #8
  402090:	f9004fa0 	str	x0, [x29, #152]
  402094:	17ffff97 	b	401ef0 <_nl_find_msg+0x190>
  402098:	900004bc 	adrp	x28, 496000 <_IO_strn_jumps+0x88>
  40209c:	91232380 	add	x0, x28, #0x8c8
  4020a0:	b9401801 	ldr	w1, [x0, #24]
  4020a4:	340001c1 	cbz	w1, 4020dc <_nl_find_msg+0x37c>
  4020a8:	f9401019 	ldr	x25, [x0, #32]
  4020ac:	b5fffb79 	cbnz	x25, 402018 <_nl_find_msg+0x2b8>
  4020b0:	b0000480 	adrp	x0, 493000 <tunable_list+0x528>
  4020b4:	f946cc00 	ldr	x0, [x0, #3480]
  4020b8:	d53bd041 	mrs	x1, tpidr_el0
  4020bc:	f8606820 	ldr	x0, [x1, x0]
  4020c0:	f9400000 	ldr	x0, [x0]
  4020c4:	f9405819 	ldr	x25, [x0, #176]
  4020c8:	17ffffd4 	b	402018 <_nl_find_msg+0x2b8>
  4020cc:	8b204318 	add	x24, x24, w0, uxtw
  4020d0:	11000760 	add	w0, w27, #0x1
  4020d4:	f9004fa0 	str	x0, [x29, #152]
  4020d8:	17ffff84 	b	401ee8 <_nl_find_msg+0x188>
  4020dc:	900002c0 	adrp	x0, 45a000 <ex5_shuffle_pattern+0x7a0>
  4020e0:	9104a000 	add	x0, x0, #0x128
  4020e4:	940010fb 	bl	4064d0 <getenv>
  4020e8:	aa0003fa 	mov	x26, x0
  4020ec:	b4000060 	cbz	x0, 4020f8 <_nl_find_msg+0x398>
  4020f0:	39400001 	ldrb	w1, [x0]
  4020f4:	35001b81 	cbnz	w1, 402464 <_nl_find_msg+0x704>
  4020f8:	91232380 	add	x0, x28, #0x8c8
  4020fc:	f9401019 	ldr	x25, [x0, #32]
  402100:	9123239c 	add	x28, x28, #0x8c8
  402104:	52800020 	mov	w0, #0x1                   	// #1
  402108:	b9001b80 	str	w0, [x28, #24]
  40210c:	b5fff879 	cbnz	x25, 402018 <_nl_find_msg+0x2b8>
  402110:	17ffffe8 	b	4020b0 <_nl_find_msg+0x350>
  402114:	900004bc 	adrp	x28, 496000 <_IO_strn_jumps+0x88>
  402118:	91232393 	add	x19, x28, #0x8c8
  40211c:	9100a273 	add	x19, x19, #0x28
  402120:	52800021 	mov	w1, #0x1                   	// #1
  402124:	aa1303e2 	mov	x2, x19
  402128:	94014596 	bl	453780 <__aarch64_cas4_acq>
  40212c:	35001fa0 	cbnz	w0, 402520 <_nl_find_msg+0x7c0>
  402130:	91232399 	add	x25, x28, #0x8c8
  402134:	910283a0 	add	x0, x29, #0xa0
  402138:	f90047a0 	str	x0, [x29, #136]
  40213c:	9102c3b7 	add	x23, x29, #0xb0
  402140:	9102a3b5 	add	x21, x29, #0xa8
  402144:	52800013 	mov	w19, #0x0                   	// #0
  402148:	f9401b20 	ldr	x0, [x25, #48]
  40214c:	d281fe1b 	mov	x27, #0xff0                 	// #4080
  402150:	f9401f21 	ldr	x1, [x25, #56]
  402154:	91002000 	add	x0, x0, #0x8
  402158:	f90053b8 	str	x24, [x29, #160]
  40215c:	f90057a0 	str	x0, [x29, #168]
  402160:	f1001c3f 	cmp	x1, #0x7
  402164:	54000209 	b.ls	4021a4 <_nl_find_msg+0x444>  // b.plast
  402168:	d1002024 	sub	x4, x1, #0x8
  40216c:	aa1703e5 	mov	x5, x23
  402170:	a9498ba1 	ldp	x1, x2, [x29, #152]
  402174:	aa1503e3 	mov	x3, x21
  402178:	f9400740 	ldr	x0, [x26, #8]
  40217c:	f94057a9 	ldr	x9, [x29, #168]
  402180:	8b010042 	add	x2, x2, x1
  402184:	f94047a1 	ldr	x1, [x29, #136]
  402188:	8b040124 	add	x4, x9, x4
  40218c:	940075ad 	bl	41f840 <__gconv>
  402190:	721d781f 	tst	w0, #0xfffffffb
  402194:	54001920 	b.eq	4024b8 <_nl_find_msg+0x758>  // b.none
  402198:	7100141f 	cmp	w0, #0x5
  40219c:	540017c1 	b.ne	402494 <_nl_find_msg+0x734>  // b.any
  4021a0:	f90053b8 	str	x24, [x29, #160]
  4021a4:	340002b3 	cbz	w19, 4021f8 <_nl_find_msg+0x498>
  4021a8:	11000673 	add	w19, w19, #0x1
  4021ac:	f9400b22 	ldr	x2, [x25, #16]
  4021b0:	53185e61 	lsl	w1, w19, #8
  4021b4:	4b130021 	sub	w1, w1, w19
  4021b8:	f9004ba2 	str	x2, [x29, #144]
  4021bc:	aa0203e0 	mov	x0, x2
  4021c0:	531c6c21 	lsl	w1, w1, #4
  4021c4:	93407c34 	sxtw	x20, w1
  4021c8:	f9001f34 	str	x20, [x25, #56]
  4021cc:	aa1403e1 	mov	x1, x20
  4021d0:	940049c9 	bl	4148f4 <__libc_realloc>
  4021d4:	f9404ba2 	ldr	x2, [x29, #144]
  4021d8:	b4000540 	cbz	x0, 402280 <_nl_find_msg+0x520>
  4021dc:	d1002281 	sub	x1, x20, #0x8
  4021e0:	91002002 	add	x2, x0, #0x8
  4021e4:	91004003 	add	x3, x0, #0x10
  4021e8:	f9000b20 	str	x0, [x25, #16]
  4021ec:	a9030722 	stp	x2, x1, [x25, #48]
  4021f0:	f90057a3 	str	x3, [x29, #168]
  4021f4:	17ffffdb 	b	402160 <_nl_find_msg+0x400>
  4021f8:	d281fe00 	mov	x0, #0xff0                 	// #4080
  4021fc:	f9001f3b 	str	x27, [x25, #56]
  402200:	940047cc 	bl	414130 <__libc_malloc>
  402204:	b4000460 	cbz	x0, 402290 <_nl_find_msg+0x530>
  402208:	f9400b22 	ldr	x2, [x25, #16]
  40220c:	d281fd01 	mov	x1, #0xfe8                 	// #4072
  402210:	52800033 	mov	w19, #0x1                   	// #1
  402214:	f9000002 	str	x2, [x0]
  402218:	17fffff2 	b	4021e0 <_nl_find_msg+0x480>
  40221c:	f94033b4 	ldr	x20, [x29, #96]
  402220:	aa1403e0 	mov	x0, x20
  402224:	94003543 	bl	40f730 <___pthread_rwlock_unlock>
  402228:	aa1403e0 	mov	x0, x20
  40222c:	940035cd 	bl	40f960 <___pthread_rwlock_wrlock>
  402230:	a9470ae1 	ldp	x1, x2, [x23, #112]
  402234:	8b020440 	add	x0, x2, x2, lsl #1
  402238:	aa0103f5 	mov	x21, x1
  40223c:	d37df000 	lsl	x0, x0, #3
  402240:	d1006003 	sub	x3, x0, #0x18
  402244:	aa0003f4 	mov	x20, x0
  402248:	8b030023 	add	x3, x1, x3
  40224c:	d503201f 	nop
  402250:	b4000382 	cbz	x2, 4022c0 <_nl_find_msg+0x560>
  402254:	aa0303fa 	mov	x26, x3
  402258:	d1000442 	sub	x2, x2, #0x1
  40225c:	f85e8460 	ldr	x0, [x3], #-24
  402260:	aa1903e1 	mov	x1, x25
  402264:	f9003fa2 	str	x2, [x29, #120]
  402268:	f9004ba3 	str	x3, [x29, #144]
  40226c:	94004e95 	bl	415cc0 <strcmp>
  402270:	f9403fa2 	ldr	x2, [x29, #120]
  402274:	f9404ba3 	ldr	x3, [x29, #144]
  402278:	35fffec0 	cbnz	w0, 402250 <_nl_find_msg+0x4f0>
  40227c:	17ffff78 	b	40205c <_nl_find_msg+0x2fc>
  402280:	f9400041 	ldr	x1, [x2]
  402284:	aa0203e0 	mov	x0, x2
  402288:	f9000b21 	str	x1, [x25, #16]
  40228c:	94004909 	bl	4146b0 <__free>
  402290:	9123239c 	add	x28, x28, #0x8c8
  402294:	52800000 	mov	w0, #0x0                   	// #0
  402298:	9100a393 	add	x19, x28, #0x28
  40229c:	92800018 	mov	x24, #0xffffffffffffffff    	// #-1
  4022a0:	aa1303e1 	mov	x1, x19
  4022a4:	a9037f9f 	stp	xzr, xzr, [x28, #48]
  4022a8:	940145ca 	bl	4539d0 <__aarch64_swp4_rel>
  4022ac:	7100041f 	cmp	w0, #0x1
  4022b0:	54ffe5cd 	b.le	401f68 <_nl_find_msg+0x208>
  4022b4:	aa1303e0 	mov	x0, x19
  4022b8:	940033a3 	bl	40f144 <__lll_lock_wake_private>
  4022bc:	17ffff2b 	b	401f68 <_nl_find_msg+0x208>
  4022c0:	91006280 	add	x0, x20, #0x18
  4022c4:	b4001295 	cbz	x21, 402514 <_nl_find_msg+0x7b4>
  4022c8:	aa0003e1 	mov	x1, x0
  4022cc:	aa1503e0 	mov	x0, x21
  4022d0:	94004989 	bl	4148f4 <__libc_realloc>
  4022d4:	aa0003e1 	mov	x1, x0
  4022d8:	b40013c1 	cbz	x1, 402550 <_nl_find_msg+0x7f0>
  4022dc:	f9003ae1 	str	x1, [x23, #112]
  4022e0:	aa1903e0 	mov	x0, x25
  4022e4:	f9004ba1 	str	x1, [x29, #144]
  4022e8:	94004f66 	bl	416080 <__strdup>
  4022ec:	aa0003f9 	mov	x25, x0
  4022f0:	b4001300 	cbz	x0, 402550 <_nl_find_msg+0x7f0>
  4022f4:	f9404ba1 	ldr	x1, [x29, #144]
  4022f8:	92800003 	mov	x3, #0xffffffffffffffff    	// #-1
  4022fc:	b0000342 	adrp	x2, 46b000 <translit_from_idx+0xe20>
  402300:	9102a3a4 	add	x4, x29, #0xa8
  402304:	8b14003a 	add	x26, x1, x20
  402308:	91380042 	add	x2, x2, #0xe00
  40230c:	f8346820 	str	x0, [x1, x20]
  402310:	f94037a1 	ldr	x1, [x29, #104]
  402314:	f9000743 	str	x3, [x26, #8]
  402318:	f94047a0 	ldr	x0, [x29, #136]
  40231c:	52800003 	mov	w3, #0x0                   	// #0
  402320:	97fffe90 	bl	401d60 <_nl_find_msg>
  402324:	b100041f 	cmn	x0, #0x1
  402328:	54001220 	b.eq	40256c <_nl_find_msg+0x80c>  // b.none
  40232c:	b4000620 	cbz	x0, 4023f0 <_nl_find_msg+0x690>
  402330:	900002c1 	adrp	x1, 45a000 <ex5_shuffle_pattern+0x7a0>
  402334:	9104e021 	add	x1, x1, #0x138
  402338:	9400510a 	bl	416760 <strstr>
  40233c:	b40005a0 	cbz	x0, 4023f0 <_nl_find_msg+0x690>
  402340:	91002015 	add	x21, x0, #0x8
  402344:	900002c1 	adrp	x1, 45a000 <ex5_shuffle_pattern+0x7a0>
  402348:	aa1503e0 	mov	x0, x21
  40234c:	91052021 	add	x1, x1, #0x148
  402350:	94004ef4 	bl	415f20 <strcspn>
  402354:	aa0003f4 	mov	x20, x0
  402358:	91004000 	add	x0, x0, #0x10
  40235c:	9270bc01 	and	x1, x0, #0xffffffffffff0000
  402360:	927cec00 	and	x0, x0, #0xfffffffffffffff0
  402364:	cb2163e1 	sub	x1, sp, x1
  402368:	eb2163ff 	cmp	sp, x1
  40236c:	540000a0 	b.eq	402380 <_nl_find_msg+0x620>  // b.none
  402370:	d14043ff 	sub	sp, sp, #0x10, lsl #12
  402374:	f90203ff 	str	xzr, [sp, #1024]
  402378:	eb2163ff 	cmp	sp, x1
  40237c:	54ffffa1 	b.ne	402370 <_nl_find_msg+0x610>  // b.any
  402380:	92403c00 	and	x0, x0, #0xffff
  402384:	cb2063ff 	sub	sp, sp, x0
  402388:	f90003ff 	str	xzr, [sp]
  40238c:	f110001f 	cmp	x0, #0x400
  402390:	54000043 	b.cc	402398 <_nl_find_msg+0x638>  // b.lo, b.ul, b.last
  402394:	f90203ff 	str	xzr, [sp, #1024]
  402398:	910043e3 	add	x3, sp, #0x10
  40239c:	aa1503e1 	mov	x1, x21
  4023a0:	aa1403e2 	mov	x2, x20
  4023a4:	aa0303e0 	mov	x0, x3
  4023a8:	9102c3b5 	add	x21, x29, #0xb0
  4023ac:	97fff7c1 	bl	4002b0 <.plt+0x10>
  4023b0:	aa0003e3 	mov	x3, x0
  4023b4:	aa0003e1 	mov	x1, x0
  4023b8:	aa1903e2 	mov	x2, x25
  4023bc:	aa1503e0 	mov	x0, x21
  4023c0:	3834687f 	strb	wzr, [x3, x20]
  4023c4:	94009a5b 	bl	428d30 <__gconv_create_spec>
  4023c8:	52800023 	mov	w3, #0x1                   	// #1
  4023cc:	91002341 	add	x1, x26, #0x8
  4023d0:	52800022 	mov	w2, #0x1                   	// #1
  4023d4:	aa1503e0 	mov	x0, x21
  4023d8:	390303a3 	strb	w3, [x29, #192]
  4023dc:	9400742d 	bl	41f490 <__gconv_open>
  4023e0:	2a0003f4 	mov	w20, w0
  4023e4:	aa1503e0 	mov	x0, x21
  4023e8:	94009b07 	bl	429004 <__gconv_destroy_spec>
  4023ec:	35000cb4 	cbnz	w20, 402580 <_nl_find_msg+0x820>
  4023f0:	f9403ee0 	ldr	x0, [x23, #120]
  4023f4:	f9000b5f 	str	xzr, [x26, #16]
  4023f8:	91000400 	add	x0, x0, #0x1
  4023fc:	f9003ee0 	str	x0, [x23, #120]
  402400:	17ffff17 	b	40205c <_nl_find_msg+0x2fc>
  402404:	900004bc 	adrp	x28, 496000 <_IO_strn_jumps+0x88>
  402408:	91232395 	add	x21, x28, #0x8c8
  40240c:	9100a2b5 	add	x21, x21, #0x28
  402410:	52800021 	mov	w1, #0x1                   	// #1
  402414:	aa1503e2 	mov	x2, x21
  402418:	940144da 	bl	453780 <__aarch64_cas4_acq>
  40241c:	35000a20 	cbnz	w0, 402560 <_nl_find_msg+0x800>
  402420:	f9400b40 	ldr	x0, [x26, #16]
  402424:	b4000840 	cbz	x0, 40252c <_nl_find_msg+0x7cc>
  402428:	91232393 	add	x19, x28, #0x8c8
  40242c:	52800000 	mov	w0, #0x0                   	// #0
  402430:	9100a273 	add	x19, x19, #0x28
  402434:	aa1303e1 	mov	x1, x19
  402438:	94014566 	bl	4539d0 <__aarch64_swp4_rel>
  40243c:	7100041f 	cmp	w0, #0x1
  402440:	5400006c 	b.gt	40244c <_nl_find_msg+0x6ec>
  402444:	f9400b40 	ldr	x0, [x26, #16]
  402448:	17ffff0c 	b	402078 <_nl_find_msg+0x318>
  40244c:	aa1303e0 	mov	x0, x19
  402450:	9400333d 	bl	40f144 <__lll_lock_wake_private>
  402454:	f9400b40 	ldr	x0, [x26, #16]
  402458:	17ffff08 	b	402078 <_nl_find_msg+0x318>
  40245c:	aa0003f8 	mov	x24, x0
  402460:	17fffec2 	b	401f68 <_nl_find_msg+0x208>
  402464:	97fff7a7 	bl	400300 <.plt+0x60>
  402468:	9100041b 	add	x27, x0, #0x1
  40246c:	aa1b03e0 	mov	x0, x27
  402470:	94004730 	bl	414130 <__libc_malloc>
  402474:	aa0003f9 	mov	x25, x0
  402478:	b4000080 	cbz	x0, 402488 <_nl_find_msg+0x728>
  40247c:	aa1b03e2 	mov	x2, x27
  402480:	aa1a03e1 	mov	x1, x26
  402484:	97fff78b 	bl	4002b0 <.plt+0x10>
  402488:	91232380 	add	x0, x28, #0x8c8
  40248c:	f9001019 	str	x25, [x0, #32]
  402490:	17ffff1c 	b	402100 <_nl_find_msg+0x3a0>
  402494:	91232393 	add	x19, x28, #0x8c8
  402498:	52800000 	mov	w0, #0x0                   	// #0
  40249c:	9100a273 	add	x19, x19, #0x28
  4024a0:	d2800018 	mov	x24, #0x0                   	// #0
  4024a4:	aa1303e1 	mov	x1, x19
  4024a8:	9401454a 	bl	4539d0 <__aarch64_swp4_rel>
  4024ac:	7100041f 	cmp	w0, #0x1
  4024b0:	54ffd5cd 	b.le	401f68 <_nl_find_msg+0x208>
  4024b4:	17ffff80 	b	4022b4 <_nl_find_msg+0x554>
  4024b8:	9123239c 	add	x28, x28, #0x8c8
  4024bc:	d37df2d3 	lsl	x19, x22, #3
  4024c0:	f94057a3 	ldr	x3, [x29, #168]
  4024c4:	9100a395 	add	x21, x28, #0x28
  4024c8:	a9430b84 	ldp	x4, x2, [x28, #48]
  4024cc:	aa1503e1 	mov	x1, x21
  4024d0:	f9400b47 	ldr	x7, [x26, #16]
  4024d4:	52800000 	mov	w0, #0x0                   	// #0
  4024d8:	cb040065 	sub	x5, x3, x4
  4024dc:	cb050042 	sub	x2, x2, x5
  4024e0:	d10020a8 	sub	x8, x5, #0x8
  4024e4:	f9000088 	str	x8, [x4]
  4024e8:	f83678e4 	str	x4, [x7, x22, lsl #3]
  4024ec:	92400844 	and	x4, x2, #0x7
  4024f0:	8b040063 	add	x3, x3, x4
  4024f4:	927df042 	and	x2, x2, #0xfffffffffffffff8
  4024f8:	a9030b83 	stp	x3, x2, [x28, #48]
  4024fc:	94014535 	bl	4539d0 <__aarch64_swp4_rel>
  402500:	7100041f 	cmp	w0, #0x1
  402504:	5400038c 	b.gt	402574 <_nl_find_msg+0x814>
  402508:	f9400b40 	ldr	x0, [x26, #16]
  40250c:	f8736800 	ldr	x0, [x0, x19]
  402510:	17fffede 	b	402088 <_nl_find_msg+0x328>
  402514:	94004707 	bl	414130 <__libc_malloc>
  402518:	aa0003e1 	mov	x1, x0
  40251c:	17ffff6f 	b	4022d8 <_nl_find_msg+0x578>
  402520:	aa1303e0 	mov	x0, x19
  402524:	940032c7 	bl	40f040 <__lll_lock_wait_private>
  402528:	17ffff02 	b	402130 <_nl_find_msg+0x3d0>
  40252c:	b94042e0 	ldr	w0, [x23, #64]
  402530:	d2800101 	mov	x1, #0x8                   	// #8
  402534:	0b000260 	add	w0, w19, w0
  402538:	94004a7e 	bl	414f30 <__calloc>
  40253c:	f9000b40 	str	x0, [x26, #16]
  402540:	b5ffdf80 	cbnz	x0, 402130 <_nl_find_msg+0x3d0>
  402544:	92800000 	mov	x0, #0xffffffffffffffff    	// #-1
  402548:	f9000b40 	str	x0, [x26, #16]
  40254c:	17ffffb7 	b	402428 <_nl_find_msg+0x6c8>
  402550:	f94033a0 	ldr	x0, [x29, #96]
  402554:	92800018 	mov	x24, #0xffffffffffffffff    	// #-1
  402558:	94003476 	bl	40f730 <___pthread_rwlock_unlock>
  40255c:	17fffe83 	b	401f68 <_nl_find_msg+0x208>
  402560:	aa1503e0 	mov	x0, x21
  402564:	940032b7 	bl	40f040 <__lll_lock_wait_private>
  402568:	17ffffae 	b	402420 <_nl_find_msg+0x6c0>
  40256c:	aa0003f8 	mov	x24, x0
  402570:	17fffe7e 	b	401f68 <_nl_find_msg+0x208>
  402574:	aa1503e0 	mov	x0, x21
  402578:	940032f3 	bl	40f144 <__lll_lock_wake_private>
  40257c:	17ffffe3 	b	402508 <_nl_find_msg+0x7a8>
  402580:	3100069f 	cmn	w20, #0x1
  402584:	54000100 	b.eq	4025a4 <_nl_find_msg+0x844>  // b.none
  402588:	f94033a0 	ldr	x0, [x29, #96]
  40258c:	d2800018 	mov	x24, #0x0                   	// #0
  402590:	94003468 	bl	40f730 <___pthread_rwlock_unlock>
  402594:	aa1903e0 	mov	x0, x25
  402598:	94004846 	bl	4146b0 <__free>
  40259c:	17fffe73 	b	401f68 <_nl_find_msg+0x208>
  4025a0:	940069c4 	bl	41ccb0 <__stack_chk_fail>
  4025a4:	92800000 	mov	x0, #0xffffffffffffffff    	// #-1
  4025a8:	f9000740 	str	x0, [x26, #8]
  4025ac:	17ffff91 	b	4023f0 <_nl_find_msg+0x690>

00000000004025b0 <__dcigettext>:
  4025b0:	a9ab7bfd 	stp	x29, x30, [sp, #-336]!
  4025b4:	910003fd 	mov	x29, sp
  4025b8:	a9025bf5 	stp	x21, x22, [sp, #32]
  4025bc:	b0000496 	adrp	x22, 493000 <tunable_list+0x528>
  4025c0:	f945fac6 	ldr	x6, [x22, #3056]
  4025c4:	a90153f3 	stp	x19, x20, [sp, #16]
  4025c8:	a90363f7 	stp	x23, x24, [sp, #48]
  4025cc:	a9046bf9 	stp	x25, x26, [sp, #64]
  4025d0:	a90573fb 	stp	x27, x28, [sp, #80]
  4025d4:	d10043ff 	sub	sp, sp, #0x10
  4025d8:	f94000c7 	ldr	x7, [x6]
  4025dc:	f900a7a7 	str	x7, [x29, #328]
  4025e0:	d2800007 	mov	x7, #0x0                   	// #0
  4025e4:	f90053a2 	str	x2, [x29, #160]
  4025e8:	f90073a4 	str	x4, [x29, #224]
  4025ec:	b900eba3 	str	w3, [x29, #232]
  4025f0:	f9007fbf 	str	xzr, [x29, #248]
  4025f4:	b40026a1 	cbz	x1, 402ac8 <__dcigettext+0x518>
  4025f8:	710030bf 	cmp	w5, #0xc
  4025fc:	aa0103f5 	mov	x21, x1
  402600:	2a0503f7 	mov	w23, w5
  402604:	7a4698a4 	ccmp	w5, #0x6, #0x4, ls  // ls = plast
  402608:	54000281 	b.ne	402658 <__dcigettext+0xa8>  // b.any
  40260c:	7100007f 	cmp	w3, #0x0
  402610:	fa411884 	ccmp	x4, #0x1, #0x4, ne  // ne = any
  402614:	54002161 	b.ne	402a40 <__dcigettext+0x490>  // b.any
  402618:	aa1503e3 	mov	x3, x21
  40261c:	f945fad6 	ldr	x22, [x22, #3056]
  402620:	f940a7a0 	ldr	x0, [x29, #328]
  402624:	f94002c1 	ldr	x1, [x22]
  402628:	eb010000 	subs	x0, x0, x1
  40262c:	d2800001 	mov	x1, #0x0                   	// #0
  402630:	540038c1 	b.ne	402d48 <__dcigettext+0x798>  // b.any
  402634:	910003bf 	mov	sp, x29
  402638:	aa0303e0 	mov	x0, x3
  40263c:	a94153f3 	ldp	x19, x20, [sp, #16]
  402640:	a9425bf5 	ldp	x21, x22, [sp, #32]
  402644:	a94363f7 	ldp	x23, x24, [sp, #48]
  402648:	a9446bf9 	ldp	x25, x26, [sp, #64]
  40264c:	a94573fb 	ldp	x27, x28, [sp, #80]
  402650:	a8d57bfd 	ldp	x29, x30, [sp], #336
  402654:	d65f03c0 	ret
  402658:	b0000481 	adrp	x1, 493000 <tunable_list+0x528>
  40265c:	f946f021 	ldr	x1, [x1, #3552]
  402660:	d53bd042 	mrs	x2, tpidr_el0
  402664:	aa0003f4 	mov	x20, x0
  402668:	b00004c0 	adrp	x0, 49b000 <_dl_in_flight_stack>
  40266c:	a90b03a1 	stp	x1, x0, [x29, #176]
  402670:	900004a3 	adrp	x3, 496000 <_IO_strn_jumps+0x88>
  402674:	f0fffff9 	adrp	x25, 401000 <pass_bytes+0x90>
  402678:	b8616841 	ldr	w1, [x2, x1]
  40267c:	91232073 	add	x19, x3, #0x8c8
  402680:	91042000 	add	x0, x0, #0x108
  402684:	f90047b9 	str	x25, [x29, #136]
  402688:	f90063a2 	str	x2, [x29, #192]
  40268c:	9101e278 	add	x24, x19, #0x78
  402690:	b900cfa1 	str	w1, [x29, #204]
  402694:	f9006ba3 	str	x3, [x29, #208]
  402698:	9400337a 	bl	40f480 <___pthread_rwlock_rdlock>
  40269c:	91010260 	add	x0, x19, #0x40
  4026a0:	94003378 	bl	40f480 <___pthread_rwlock_rdlock>
  4026a4:	d0000481 	adrp	x1, 494000 <.got.plt+0x18>
  4026a8:	f100029f 	cmp	x20, #0x0
  4026ac:	2a1703e0 	mov	w0, w23
  4026b0:	b90113b7 	str	w23, [x29, #272]
  4026b4:	f9402421 	ldr	x1, [x1, #72]
  4026b8:	f90097bf 	str	xzr, [x29, #296]
  4026bc:	f900a3b5 	str	x21, [x29, #320]
  4026c0:	9a940034 	csel	x20, x1, x20, eq  // eq = none
  4026c4:	f90087b4 	str	x20, [x29, #264]
  4026c8:	9400a15a 	bl	42ac30 <__current_locale_name>
  4026cc:	aa0003e1 	mov	x1, x0
  4026d0:	aa1803e0 	mov	x0, x24
  4026d4:	f9004ba1 	str	x1, [x29, #144]
  4026d8:	f9008fa1 	str	x1, [x29, #280]
  4026dc:	94003369 	bl	40f480 <___pthread_rwlock_rdlock>
  4026e0:	91002261 	add	x1, x19, #0x8
  4026e4:	91338322 	add	x2, x25, #0xce0
  4026e8:	910423a0 	add	x0, x29, #0x108
  4026ec:	9400643d 	bl	41b7e0 <__tfind>
  4026f0:	aa0003e1 	mov	x1, x0
  4026f4:	aa1803e0 	mov	x0, x24
  4026f8:	aa0103f3 	mov	x19, x1
  4026fc:	f9004fa1 	str	x1, [x29, #152]
  402700:	9400340c 	bl	40f730 <___pthread_rwlock_unlock>
  402704:	b40000f3 	cbz	x19, 402720 <__dcigettext+0x170>
  402708:	f94652c0 	ldr	x0, [x22, #3232]
  40270c:	f9400262 	ldr	x2, [x19]
  402710:	b9400000 	ldr	w0, [x0]
  402714:	b9401841 	ldr	w1, [x2, #24]
  402718:	6b00003f 	cmp	w1, w0
  40271c:	54001da0 	b.eq	402ad0 <__dcigettext+0x520>  // b.none
  402720:	f9406ba0 	ldr	x0, [x29, #208]
  402724:	f9446413 	ldr	x19, [x0, #2248]
  402728:	b50000b3 	cbnz	x19, 40273c <__dcigettext+0x18c>
  40272c:	140000e0 	b	402aac <__dcigettext+0x4fc>
  402730:	54001c4b 	b.lt	402ab8 <__dcigettext+0x508>  // b.tstop
  402734:	f9400273 	ldr	x19, [x19]
  402738:	b4001bb3 	cbz	x19, 402aac <__dcigettext+0x4fc>
  40273c:	91006261 	add	x1, x19, #0x18
  402740:	aa1403e0 	mov	x0, x20
  402744:	94004d5f 	bl	415cc0 <strcmp>
  402748:	7100001f 	cmp	w0, #0x0
  40274c:	35ffff20 	cbnz	w0, 402730 <__dcigettext+0x180>
  402750:	f9400678 	ldr	x24, [x19, #8]
  402754:	39400300 	ldrb	w0, [x24]
  402758:	7100bc1f 	cmp	w0, #0x2f
  40275c:	54001761 	b.ne	402a48 <__dcigettext+0x498>  // b.any
  402760:	f00002c2 	adrp	x2, 45d000 <builtin_aliases+0x398>
  402764:	911c8042 	add	x2, x2, #0x720
  402768:	f00002c1 	adrp	x1, 45d000 <builtin_aliases+0x398>
  40276c:	911a4021 	add	x1, x1, #0x690
  402770:	2a1703e0 	mov	w0, w23
  402774:	3877c85a 	ldrb	w26, [x2, w23, sxtw]
  402778:	8b01035a 	add	x26, x26, x1
  40277c:	9400a12d 	bl	42ac30 <__current_locale_name>
  402780:	aa0003f9 	mov	x25, x0
  402784:	39400000 	ldrb	w0, [x0]
  402788:	71010c1f 	cmp	w0, #0x43
  40278c:	54001801 	b.ne	402a8c <__dcigettext+0x4dc>  // b.any
  402790:	39400720 	ldrb	w0, [x25, #1]
  402794:	350017c0 	cbnz	w0, 402a8c <__dcigettext+0x4dc>
  402798:	aa1403e0 	mov	x0, x20
  40279c:	97fff6d9 	bl	400300 <.plt+0x60>
  4027a0:	aa0003e1 	mov	x1, x0
  4027a4:	aa1a03e0 	mov	x0, x26
  4027a8:	aa0103fb 	mov	x27, x1
  4027ac:	f90043a1 	str	x1, [x29, #128]
  4027b0:	97fff6d4 	bl	400300 <.plt+0x60>
  4027b4:	8b1b0000 	add	x0, x0, x27
  4027b8:	91005000 	add	x0, x0, #0x14
  4027bc:	9100eb62 	add	x2, x27, #0x3a
  4027c0:	9270bc01 	and	x1, x0, #0xffffffffffff0000
  4027c4:	f9003fa2 	str	x2, [x29, #120]
  4027c8:	cb2163e1 	sub	x1, sp, x1
  4027cc:	927cec00 	and	x0, x0, #0xfffffffffffffff0
  4027d0:	eb2163ff 	cmp	sp, x1
  4027d4:	540000a0 	b.eq	4027e8 <__dcigettext+0x238>  // b.none
  4027d8:	d14043ff 	sub	sp, sp, #0x10, lsl #12
  4027dc:	f90203ff 	str	xzr, [sp, #1024]
  4027e0:	eb2163ff 	cmp	sp, x1
  4027e4:	54ffffa1 	b.ne	4027d8 <__dcigettext+0x228>  // b.any
  4027e8:	92403c00 	and	x0, x0, #0xffff
  4027ec:	cb2063ff 	sub	sp, sp, x0
  4027f0:	f90003ff 	str	xzr, [sp]
  4027f4:	f110001f 	cmp	x0, #0x400
  4027f8:	540018e2 	b.cs	402b14 <__dcigettext+0x564>  // b.hs, b.nlast
  4027fc:	aa1a03e1 	mov	x1, x26
  402800:	910043e0 	add	x0, sp, #0x10
  402804:	f9006fa0 	str	x0, [x29, #216]
  402808:	940051ae 	bl	416ec0 <__stpcpy>
  40280c:	f94043ba 	ldr	x26, [x29, #128]
  402810:	528005e3 	mov	w3, #0x2f                  	// #47
  402814:	38001403 	strb	w3, [x0], #1
  402818:	aa1403e1 	mov	x1, x20
  40281c:	aa1a03e2 	mov	x2, x26
  402820:	97fff6a4 	bl	4002b0 <.plt+0x10>
  402824:	aa0003e1 	mov	x1, x0
  402828:	528da5c2 	mov	w2, #0x6d2e                	// #27950
  40282c:	aa1903e0 	mov	x0, x25
  402830:	72a00de2 	movk	w2, #0x6f, lsl #16
  402834:	b83a6822 	str	w2, [x1, x26]
  402838:	97fff6b2 	bl	400300 <.plt+0x60>
  40283c:	91004000 	add	x0, x0, #0x10
  402840:	9270bc01 	and	x1, x0, #0xffffffffffff0000
  402844:	927cec00 	and	x0, x0, #0xfffffffffffffff0
  402848:	cb2163e1 	sub	x1, sp, x1
  40284c:	eb2163ff 	cmp	sp, x1
  402850:	540000a0 	b.eq	402864 <__dcigettext+0x2b4>  // b.none
  402854:	d14043ff 	sub	sp, sp, #0x10, lsl #12
  402858:	f90203ff 	str	xzr, [sp, #1024]
  40285c:	eb2163ff 	cmp	sp, x1
  402860:	54ffffa1 	b.ne	402854 <__dcigettext+0x2a4>  // b.any
  402864:	92403c00 	and	x0, x0, #0xffff
  402868:	cb2063ff 	sub	sp, sp, x0
  40286c:	f90003ff 	str	xzr, [sp]
  402870:	f110001f 	cmp	x0, #0x400
  402874:	54000043 	b.cc	40287c <__dcigettext+0x2cc>  // b.lo, b.ul, b.last
  402878:	f90203ff 	str	xzr, [sp, #1024]
  40287c:	910043fb 	add	x27, sp, #0x10
  402880:	910403a0 	add	x0, x29, #0x100
  402884:	f90057a0 	str	x0, [x29, #168]
  402888:	aa1b03e0 	mov	x0, x27
  40288c:	900002da 	adrp	x26, 45a000 <ex5_shuffle_pattern+0x7a0>
  402890:	aa1903fb 	mov	x27, x25
  402894:	9105a35a 	add	x26, x26, #0x168
  402898:	aa0003f9 	mov	x25, x0
  40289c:	d503201f 	nop
  4028a0:	39400360 	ldrb	w0, [x27]
  4028a4:	7100e81f 	cmp	w0, #0x3a
  4028a8:	540016c0 	b.eq	402b80 <__dcigettext+0x5d0>  // b.none
  4028ac:	350016e0 	cbnz	w0, 402b88 <__dcigettext+0x5d8>
  4028b0:	52800860 	mov	w0, #0x43                  	// #67
  4028b4:	79000320 	strh	w0, [x25]
  4028b8:	39400320 	ldrb	w0, [x25]
  4028bc:	71010c1f 	cmp	w0, #0x43
  4028c0:	54000061 	b.ne	4028cc <__dcigettext+0x31c>  // b.any
  4028c4:	39400720 	ldrb	w0, [x25, #1]
  4028c8:	34000980 	cbz	w0, 4029f8 <__dcigettext+0x448>
  4028cc:	aa1a03e1 	mov	x1, x26
  4028d0:	aa1903e0 	mov	x0, x25
  4028d4:	94004cfb 	bl	415cc0 <strcmp>
  4028d8:	34000900 	cbz	w0, 4029f8 <__dcigettext+0x448>
  4028dc:	f9406fa2 	ldr	x2, [x29, #216]
  4028e0:	aa1303e3 	mov	x3, x19
  4028e4:	aa1903e1 	mov	x1, x25
  4028e8:	aa1803e0 	mov	x0, x24
  4028ec:	9400011d 	bl	402d60 <_nl_find_domain>
  4028f0:	aa0003fc 	mov	x28, x0
  4028f4:	b4fffd60 	cbz	x0, 4028a0 <__dcigettext+0x2f0>
  4028f8:	f94057a4 	ldr	x4, [x29, #168]
  4028fc:	52800023 	mov	w3, #0x1                   	// #1
  402900:	aa1503e2 	mov	x2, x21
  402904:	aa1303e1 	mov	x1, x19
  402908:	97fffd16 	bl	401d60 <_nl_find_msg>
  40290c:	aa0003e3 	mov	x3, x0
  402910:	b4000420 	cbz	x0, 402994 <__dcigettext+0x3e4>
  402914:	b100041f 	cmn	x0, #0x1
  402918:	54000700 	b.eq	4029f8 <__dcigettext+0x448>  // b.none
  40291c:	f9407fa0 	ldr	x0, [x29, #248]
  402920:	f9006fa3 	str	x3, [x29, #216]
  402924:	94004763 	bl	4146b0 <__free>
  402928:	f9404fa0 	ldr	x0, [x29, #152]
  40292c:	f9406fa3 	ldr	x3, [x29, #216]
  402930:	b4001940 	cbz	x0, 402c58 <__dcigettext+0x6a8>
  402934:	f9404fa0 	ldr	x0, [x29, #152]
  402938:	f94652c1 	ldr	x1, [x22, #3232]
  40293c:	f9400000 	ldr	x0, [x0]
  402940:	b9400021 	ldr	w1, [x1]
  402944:	f94083a2 	ldr	x2, [x29, #256]
  402948:	b9001801 	str	w1, [x0, #24]
  40294c:	a9020c1c 	stp	x28, x3, [x0, #32]
  402950:	f9001802 	str	x2, [x0, #48]
  402954:	f9405ba1 	ldr	x1, [x29, #176]
  402958:	f94063a0 	ldr	x0, [x29, #192]
  40295c:	b940cfa2 	ldr	w2, [x29, #204]
  402960:	b8216802 	str	w2, [x0, x1]
  402964:	b940eba0 	ldr	w0, [x29, #232]
  402968:	35001460 	cbnz	w0, 402bf4 <__dcigettext+0x644>
  40296c:	f9406ba0 	ldr	x0, [x29, #208]
  402970:	f90077a3 	str	x3, [x29, #232]
  402974:	91232000 	add	x0, x0, #0x8c8
  402978:	91010000 	add	x0, x0, #0x40
  40297c:	9400336d 	bl	40f730 <___pthread_rwlock_unlock>
  402980:	f9405fa0 	ldr	x0, [x29, #184]
  402984:	91042000 	add	x0, x0, #0x108
  402988:	9400336a 	bl	40f730 <___pthread_rwlock_unlock>
  40298c:	f94077a3 	ldr	x3, [x29, #232]
  402990:	17ffff23 	b	40261c <__dcigettext+0x6c>
  402994:	f9401380 	ldr	x0, [x28, #32]
  402998:	b4fff840 	cbz	x0, 4028a0 <__dcigettext+0x2f0>
  40299c:	91008381 	add	x1, x28, #0x20
  4029a0:	d2800008 	mov	x8, #0x0                   	// #0
  4029a4:	a90667ba 	stp	x26, x25, [x29, #96]
  4029a8:	aa1303f9 	mov	x25, x19
  4029ac:	aa1503fa 	mov	x26, x21
  4029b0:	aa0803f5 	mov	x21, x8
  4029b4:	f9003bb8 	str	x24, [x29, #112]
  4029b8:	aa0103f8 	mov	x24, x1
  4029bc:	f94057b3 	ldr	x19, [x29, #168]
  4029c0:	14000005 	b	4029d4 <__dcigettext+0x424>
  4029c4:	b5001020 	cbnz	x0, 402bc8 <__dcigettext+0x618>
  4029c8:	910006b5 	add	x21, x21, #0x1
  4029cc:	f8757b00 	ldr	x0, [x24, x21, lsl #3]
  4029d0:	b4001080 	cbz	x0, 402be0 <__dcigettext+0x630>
  4029d4:	aa1303e4 	mov	x4, x19
  4029d8:	aa1a03e2 	mov	x2, x26
  4029dc:	aa1903e1 	mov	x1, x25
  4029e0:	52800023 	mov	w3, #0x1                   	// #1
  4029e4:	97fffcdf 	bl	401d60 <_nl_find_msg>
  4029e8:	b100041f 	cmn	x0, #0x1
  4029ec:	54fffec1 	b.ne	4029c4 <__dcigettext+0x414>  // b.any
  4029f0:	aa1a03f5 	mov	x21, x26
  4029f4:	d503201f 	nop
  4029f8:	f9407fa0 	ldr	x0, [x29, #248]
  4029fc:	9400472d 	bl	4146b0 <__free>
  402a00:	f9406ba0 	ldr	x0, [x29, #208]
  402a04:	91232000 	add	x0, x0, #0x8c8
  402a08:	91010000 	add	x0, x0, #0x40
  402a0c:	94003349 	bl	40f730 <___pthread_rwlock_unlock>
  402a10:	f9405fa0 	ldr	x0, [x29, #184]
  402a14:	91042000 	add	x0, x0, #0x108
  402a18:	94003346 	bl	40f730 <___pthread_rwlock_unlock>
  402a1c:	f9405ba1 	ldr	x1, [x29, #176]
  402a20:	f94063a0 	ldr	x0, [x29, #192]
  402a24:	b940cfa2 	ldr	w2, [x29, #204]
  402a28:	b8216802 	str	w2, [x0, x1]
  402a2c:	b940eba0 	ldr	w0, [x29, #232]
  402a30:	7100001f 	cmp	w0, #0x0
  402a34:	f94073a0 	ldr	x0, [x29, #224]
  402a38:	fa411804 	ccmp	x0, #0x1, #0x4, ne  // ne = any
  402a3c:	54ffdee0 	b.eq	402618 <__dcigettext+0x68>  // b.none
  402a40:	f94053a3 	ldr	x3, [x29, #160]
  402a44:	17fffef6 	b	40261c <__dcigettext+0x6c>
  402a48:	d2800001 	mov	x1, #0x0                   	// #0
  402a4c:	d2800000 	mov	x0, #0x0                   	// #0
  402a50:	94005edc 	bl	41a5c0 <__getcwd>
  402a54:	aa0003f9 	mov	x25, x0
  402a58:	b4fffd00 	cbz	x0, 4029f8 <__dcigettext+0x448>
  402a5c:	aa1803e3 	mov	x3, x24
  402a60:	aa0003e2 	mov	x2, x0
  402a64:	900002c1 	adrp	x1, 45a000 <ex5_shuffle_pattern+0x7a0>
  402a68:	91054021 	add	x1, x1, #0x150
  402a6c:	9103e3a0 	add	x0, x29, #0xf8
  402a70:	940011b0 	bl	407130 <___asprintf>
  402a74:	2a0003f8 	mov	w24, w0
  402a78:	aa1903e0 	mov	x0, x25
  402a7c:	9400470d 	bl	4146b0 <__free>
  402a80:	37fffbd8 	tbnz	w24, #31, 4029f8 <__dcigettext+0x448>
  402a84:	f9407fb8 	ldr	x24, [x29, #248]
  402a88:	17ffff36 	b	402760 <__dcigettext+0x1b0>
  402a8c:	900002c0 	adrp	x0, 45a000 <ex5_shuffle_pattern+0x7a0>
  402a90:	91056000 	add	x0, x0, #0x158
  402a94:	94000e8f 	bl	4064d0 <getenv>
  402a98:	b4ffe800 	cbz	x0, 402798 <__dcigettext+0x1e8>
  402a9c:	39400001 	ldrb	w1, [x0]
  402aa0:	7100003f 	cmp	w1, #0x0
  402aa4:	9a800339 	csel	x25, x25, x0, eq  // eq = none
  402aa8:	17ffff3c 	b	402798 <__dcigettext+0x1e8>
  402aac:	900002d8 	adrp	x24, 45a000 <ex5_shuffle_pattern+0x7a0>
  402ab0:	9105c318 	add	x24, x24, #0x170
  402ab4:	17ffff2b 	b	402760 <__dcigettext+0x1b0>
  402ab8:	900002d8 	adrp	x24, 45a000 <ex5_shuffle_pattern+0x7a0>
  402abc:	d2800013 	mov	x19, #0x0                   	// #0
  402ac0:	9105c318 	add	x24, x24, #0x170
  402ac4:	17ffff27 	b	402760 <__dcigettext+0x1b0>
  402ac8:	d2800003 	mov	x3, #0x0                   	// #0
  402acc:	17fffed4 	b	40261c <__dcigettext+0x6c>
  402ad0:	b940eba0 	ldr	w0, [x29, #232]
  402ad4:	f9401443 	ldr	x3, [x2, #40]
  402ad8:	35000220 	cbnz	w0, 402b1c <__dcigettext+0x56c>
  402adc:	f9406ba0 	ldr	x0, [x29, #208]
  402ae0:	f90077a3 	str	x3, [x29, #232]
  402ae4:	91232000 	add	x0, x0, #0x8c8
  402ae8:	91010000 	add	x0, x0, #0x40
  402aec:	94003311 	bl	40f730 <___pthread_rwlock_unlock>
  402af0:	f9405fa0 	ldr	x0, [x29, #184]
  402af4:	91042000 	add	x0, x0, #0x108
  402af8:	9400330e 	bl	40f730 <___pthread_rwlock_unlock>
  402afc:	f9405ba1 	ldr	x1, [x29, #176]
  402b00:	f94063a0 	ldr	x0, [x29, #192]
  402b04:	b940cfa2 	ldr	w2, [x29, #204]
  402b08:	f94077a3 	ldr	x3, [x29, #232]
  402b0c:	b8216802 	str	w2, [x0, x1]
  402b10:	17fffec3 	b	40261c <__dcigettext+0x6c>
  402b14:	f90203ff 	str	xzr, [sp, #1024]
  402b18:	17ffff39 	b	4027fc <__dcigettext+0x24c>
  402b1c:	f9401040 	ldr	x0, [x2, #32]
  402b20:	f90077a3 	str	x3, [x29, #232]
  402b24:	f94073a1 	ldr	x1, [x29, #224]
  402b28:	f9400814 	ldr	x20, [x0, #16]
  402b2c:	f9401853 	ldr	x19, [x2, #48]
  402b30:	f9405e80 	ldr	x0, [x20, #184]
  402b34:	97fffbe3 	bl	401ac0 <plural_eval>
  402b38:	f9406281 	ldr	x1, [x20, #192]
  402b3c:	aa0003f4 	mov	x20, x0
  402b40:	f94077a3 	ldr	x3, [x29, #232]
  402b44:	eb01001f 	cmp	x0, x1
  402b48:	54fffca2 	b.cs	402adc <__dcigettext+0x52c>  // b.hs, b.nlast
  402b4c:	8b130073 	add	x19, x3, x19
  402b50:	aa0303e0 	mov	x0, x3
  402b54:	aa0303f5 	mov	x21, x3
  402b58:	d1000694 	sub	x20, x20, #0x1
  402b5c:	b100069f 	cmn	x20, #0x1
  402b60:	54000f60 	b.eq	402d4c <__dcigettext+0x79c>  // b.none
  402b64:	52800001 	mov	w1, #0x0                   	// #0
  402b68:	94005196 	bl	4171c0 <__rawmemchr>
  402b6c:	91000400 	add	x0, x0, #0x1
  402b70:	eb13001f 	cmp	x0, x19
  402b74:	54ffff23 	b.cc	402b58 <__dcigettext+0x5a8>  // b.lo, b.ul, b.last
  402b78:	aa1503e3 	mov	x3, x21
  402b7c:	17ffffd8 	b	402adc <__dcigettext+0x52c>
  402b80:	9100077b 	add	x27, x27, #0x1
  402b84:	17ffff47 	b	4028a0 <__dcigettext+0x2f0>
  402b88:	aa1903e1 	mov	x1, x25
  402b8c:	d503201f 	nop
  402b90:	38001420 	strb	w0, [x1], #1
  402b94:	38401f60 	ldrb	w0, [x27, #1]!
  402b98:	7100e81f 	cmp	w0, #0x3a
  402b9c:	7a401804 	ccmp	w0, #0x0, #0x4, ne  // ne = any
  402ba0:	54ffff81 	b.ne	402b90 <__dcigettext+0x5e0>  // b.any
  402ba4:	f946a6c0 	ldr	x0, [x22, #3400]
  402ba8:	3900003f 	strb	wzr, [x1]
  402bac:	b9400000 	ldr	w0, [x0]
  402bb0:	34ffe840 	cbz	w0, 4028b8 <__dcigettext+0x308>
  402bb4:	aa1903e0 	mov	x0, x25
  402bb8:	528005e1 	mov	w1, #0x2f                  	// #47
  402bbc:	94004c11 	bl	415c00 <strchr>
  402bc0:	b5ffe700 	cbnz	x0, 4028a0 <__dcigettext+0x2f0>
  402bc4:	17ffff3d 	b	4028b8 <__dcigettext+0x308>
  402bc8:	2a1503e1 	mov	w1, w21
  402bcc:	aa0003e3 	mov	x3, x0
  402bd0:	aa1a03f5 	mov	x21, x26
  402bd4:	8b21cf81 	add	x1, x28, w1, sxtw #3
  402bd8:	f940103c 	ldr	x28, [x1, #32]
  402bdc:	17ffff50 	b	40291c <__dcigettext+0x36c>
  402be0:	aa1903f3 	mov	x19, x25
  402be4:	aa1a03f5 	mov	x21, x26
  402be8:	a94667ba 	ldp	x26, x25, [x29, #96]
  402bec:	f9403bb8 	ldr	x24, [x29, #112]
  402bf0:	17ffff2c 	b	4028a0 <__dcigettext+0x2f0>
  402bf4:	f9400b93 	ldr	x19, [x28, #16]
  402bf8:	f90077a3 	str	x3, [x29, #232]
  402bfc:	f94073a1 	ldr	x1, [x29, #224]
  402c00:	f9405e60 	ldr	x0, [x19, #184]
  402c04:	f94083b4 	ldr	x20, [x29, #256]
  402c08:	97fffbae 	bl	401ac0 <plural_eval>
  402c0c:	f9406261 	ldr	x1, [x19, #192]
  402c10:	aa0003f3 	mov	x19, x0
  402c14:	f94077a3 	ldr	x3, [x29, #232]
  402c18:	eb01001f 	cmp	x0, x1
  402c1c:	54ffea82 	b.cs	40296c <__dcigettext+0x3bc>  // b.hs, b.nlast
  402c20:	8b140074 	add	x20, x3, x20
  402c24:	aa0303e0 	mov	x0, x3
  402c28:	aa0303f5 	mov	x21, x3
  402c2c:	d503201f 	nop
  402c30:	d1000673 	sub	x19, x19, #0x1
  402c34:	b100067f 	cmn	x19, #0x1
  402c38:	540008e0 	b.eq	402d54 <__dcigettext+0x7a4>  // b.none
  402c3c:	52800001 	mov	w1, #0x0                   	// #0
  402c40:	94005160 	bl	4171c0 <__rawmemchr>
  402c44:	91000400 	add	x0, x0, #0x1
  402c48:	eb14001f 	cmp	x0, x20
  402c4c:	54ffff23 	b.cc	402c30 <__dcigettext+0x680>  // b.lo, b.ul, b.last
  402c50:	aa1503e3 	mov	x3, x21
  402c54:	17ffff46 	b	40296c <__dcigettext+0x3bc>
  402c58:	aa1503e0 	mov	x0, x21
  402c5c:	97fff5a9 	bl	400300 <.plt+0x60>
  402c60:	f9404bb9 	ldr	x25, [x29, #144]
  402c64:	91000413 	add	x19, x0, #0x1
  402c68:	aa1903e0 	mov	x0, x25
  402c6c:	97fff5a5 	bl	400300 <.plt+0x60>
  402c70:	f9403fa1 	ldr	x1, [x29, #120]
  402c74:	8b130000 	add	x0, x0, x19
  402c78:	8b010000 	add	x0, x0, x1
  402c7c:	9400452d 	bl	414130 <__libc_malloc>
  402c80:	aa0003f8 	mov	x24, x0
  402c84:	f9406fa3 	ldr	x3, [x29, #216]
  402c88:	b4ffe660 	cbz	x0, 402954 <__dcigettext+0x3a4>
  402c8c:	f94043a0 	ldr	x0, [x29, #128]
  402c90:	aa1503e1 	mov	x1, x21
  402c94:	aa1303e2 	mov	x2, x19
  402c98:	91000415 	add	x21, x0, #0x1
  402c9c:	9100e300 	add	x0, x24, #0x38
  402ca0:	97fff584 	bl	4002b0 <.plt+0x10>
  402ca4:	aa1503e2 	mov	x2, x21
  402ca8:	8b130015 	add	x21, x0, x19
  402cac:	8b0202b3 	add	x19, x21, x2
  402cb0:	aa1403e1 	mov	x1, x20
  402cb4:	aa1503e0 	mov	x0, x21
  402cb8:	97fff57e 	bl	4002b0 <.plt+0x10>
  402cbc:	aa1903e1 	mov	x1, x25
  402cc0:	aa1303e0 	mov	x0, x19
  402cc4:	94004c4f 	bl	415e00 <strcpy>
  402cc8:	f9000315 	str	x21, [x24]
  402ccc:	f94652c1 	ldr	x1, [x22, #3232]
  402cd0:	b9000b17 	str	w23, [x24, #8]
  402cd4:	a94d0fa0 	ldp	x0, x3, [x29, #208]
  402cd8:	f9000b13 	str	x19, [x24, #16]
  402cdc:	b9400021 	ldr	w1, [x1]
  402ce0:	f94083a4 	ldr	x4, [x29, #256]
  402ce4:	b9001b01 	str	w1, [x24, #24]
  402ce8:	a9020f1c 	stp	x28, x3, [x24, #32]
  402cec:	91232014 	add	x20, x0, #0x8c8
  402cf0:	f9001b04 	str	x4, [x24, #48]
  402cf4:	9101e299 	add	x25, x20, #0x78
  402cf8:	aa1903e0 	mov	x0, x25
  402cfc:	94003319 	bl	40f960 <___pthread_rwlock_wrlock>
  402d00:	f94047a0 	ldr	x0, [x29, #136]
  402d04:	91002281 	add	x1, x20, #0x8
  402d08:	91338002 	add	x2, x0, #0xce0
  402d0c:	aa1803e0 	mov	x0, x24
  402d10:	94006240 	bl	41b610 <__tsearch>
  402d14:	aa0003f3 	mov	x19, x0
  402d18:	aa1903e0 	mov	x0, x25
  402d1c:	94003285 	bl	40f730 <___pthread_rwlock_unlock>
  402d20:	f9406fa3 	ldr	x3, [x29, #216]
  402d24:	b4000093 	cbz	x19, 402d34 <__dcigettext+0x784>
  402d28:	f9400260 	ldr	x0, [x19]
  402d2c:	eb18001f 	cmp	x0, x24
  402d30:	54ffe120 	b.eq	402954 <__dcigettext+0x3a4>  // b.none
  402d34:	aa1803e0 	mov	x0, x24
  402d38:	f9006fa3 	str	x3, [x29, #216]
  402d3c:	9400465d 	bl	4146b0 <__free>
  402d40:	f9406fa3 	ldr	x3, [x29, #216]
  402d44:	17ffff04 	b	402954 <__dcigettext+0x3a4>
  402d48:	940067da 	bl	41ccb0 <__stack_chk_fail>
  402d4c:	aa0003e3 	mov	x3, x0
  402d50:	17ffff63 	b	402adc <__dcigettext+0x52c>
  402d54:	aa0003e3 	mov	x3, x0
  402d58:	17ffff05 	b	40296c <__dcigettext+0x3bc>
  402d5c:	d503201f 	nop

0000000000402d60 <_nl_find_domain>:
  402d60:	d102c3ff 	sub	sp, sp, #0xb0
  402d64:	a9027bfd 	stp	x29, x30, [sp, #32]
  402d68:	910083fd 	add	x29, sp, #0x20
  402d6c:	a9045bf5 	stp	x21, x22, [sp, #64]
  402d70:	b0000495 	adrp	x21, 493000 <tunable_list+0x528>
  402d74:	aa0303f6 	mov	x22, x3
  402d78:	f945faa4 	ldr	x4, [x21, #3056]
  402d7c:	a90353f3 	stp	x19, x20, [sp, #48]
  402d80:	a90563f7 	stp	x23, x24, [sp, #80]
  402d84:	aa0003f7 	mov	x23, x0
  402d88:	aa0103f8 	mov	x24, x1
  402d8c:	a9066bf9 	stp	x25, x26, [sp, #96]
  402d90:	900004ba 	adrp	x26, 496000 <_IO_strn_jumps+0x88>
  402d94:	9125e354 	add	x20, x26, #0x978
  402d98:	f9400080 	ldr	x0, [x4]
  402d9c:	f90057e0 	str	x0, [sp, #168]
  402da0:	d2800000 	mov	x0, #0x0                   	// #0
  402da4:	aa0203f9 	mov	x25, x2
  402da8:	aa1403e0 	mov	x0, x20
  402dac:	940031b5 	bl	40f480 <___pthread_rwlock_rdlock>
  402db0:	aa1703e0 	mov	x0, x23
  402db4:	97fff553 	bl	400300 <.plt+0x60>
  402db8:	aa1803e4 	mov	x4, x24
  402dbc:	91000402 	add	x2, x0, #0x1
  402dc0:	aa1703e1 	mov	x1, x23
  402dc4:	a90067ff 	stp	xzr, x25, [sp]
  402dc8:	d2800007 	mov	x7, #0x0                   	// #0
  402dcc:	b90013ff 	str	wzr, [sp, #16]
  402dd0:	d2800006 	mov	x6, #0x0                   	// #0
  402dd4:	d2800005 	mov	x5, #0x0                   	// #0
  402dd8:	52800003 	mov	w3, #0x0                   	// #0
  402ddc:	9100e280 	add	x0, x20, #0x38
  402de0:	940006dc 	bl	404950 <_nl_make_l10nflist>
  402de4:	aa0003f3 	mov	x19, x0
  402de8:	aa1403e0 	mov	x0, x20
  402dec:	94003251 	bl	40f730 <___pthread_rwlock_unlock>
  402df0:	b40004f3 	cbz	x19, 402e8c <_nl_find_domain+0x12c>
  402df4:	b9400a60 	ldr	w0, [x19, #8]
  402df8:	7100001f 	cmp	w0, #0x0
  402dfc:	5400040d 	b.le	402e7c <_nl_find_domain+0x11c>
  402e00:	f9400a60 	ldr	x0, [x19, #16]
  402e04:	b40001e0 	cbz	x0, 402e40 <_nl_find_domain+0xe0>
  402e08:	f945fab5 	ldr	x21, [x21, #3056]
  402e0c:	f94057e0 	ldr	x0, [sp, #168]
  402e10:	f94002a1 	ldr	x1, [x21]
  402e14:	eb010000 	subs	x0, x0, x1
  402e18:	d2800001 	mov	x1, #0x0                   	// #0
  402e1c:	54000d41 	b.ne	402fc4 <_nl_find_domain+0x264>  // b.any
  402e20:	aa1303e0 	mov	x0, x19
  402e24:	a9427bfd 	ldp	x29, x30, [sp, #32]
  402e28:	a94353f3 	ldp	x19, x20, [sp, #48]
  402e2c:	a9445bf5 	ldp	x21, x22, [sp, #64]
  402e30:	a94563f7 	ldp	x23, x24, [sp, #80]
  402e34:	a9466bf9 	ldp	x25, x26, [sp, #96]
  402e38:	9102c3ff 	add	sp, sp, #0xb0
  402e3c:	d65f03c0 	ret
  402e40:	f9401260 	ldr	x0, [x19, #32]
  402e44:	b4fffe20 	cbz	x0, 402e08 <_nl_find_domain+0xa8>
  402e48:	91008274 	add	x20, x19, #0x20
  402e4c:	14000006 	b	402e64 <_nl_find_domain+0x104>
  402e50:	f9400280 	ldr	x0, [x20]
  402e54:	f9400800 	ldr	x0, [x0, #16]
  402e58:	b5fffd80 	cbnz	x0, 402e08 <_nl_find_domain+0xa8>
  402e5c:	f8408e80 	ldr	x0, [x20, #8]!
  402e60:	b4fffd40 	cbz	x0, 402e08 <_nl_find_domain+0xa8>
  402e64:	b9400802 	ldr	w2, [x0, #8]
  402e68:	7100005f 	cmp	w2, #0x0
  402e6c:	54ffff2c 	b.gt	402e50 <_nl_find_domain+0xf0>
  402e70:	aa1603e1 	mov	x1, x22
  402e74:	94000057 	bl	402fd0 <_nl_load_domain>
  402e78:	17fffff6 	b	402e50 <_nl_find_domain+0xf0>
  402e7c:	aa1603e1 	mov	x1, x22
  402e80:	aa1303e0 	mov	x0, x19
  402e84:	94000053 	bl	402fd0 <_nl_load_domain>
  402e88:	17ffffde 	b	402e00 <_nl_find_domain+0xa0>
  402e8c:	aa1803e0 	mov	x0, x24
  402e90:	a90773fb 	stp	x27, x28, [sp, #112]
  402e94:	94000633 	bl	404760 <_nl_expand_alias>
  402e98:	aa0003fc 	mov	x28, x0
  402e9c:	b4000140 	cbz	x0, 402ec4 <_nl_find_domain+0x164>
  402ea0:	97fff518 	bl	400300 <.plt+0x60>
  402ea4:	91000414 	add	x20, x0, #0x1
  402ea8:	aa1403e0 	mov	x0, x20
  402eac:	940044a1 	bl	414130 <__libc_malloc>
  402eb0:	aa0003f8 	mov	x24, x0
  402eb4:	b4000560 	cbz	x0, 402f60 <_nl_find_domain+0x200>
  402eb8:	aa1403e2 	mov	x2, x20
  402ebc:	aa1c03e1 	mov	x1, x28
  402ec0:	97fff4fc 	bl	4002b0 <.plt+0x10>
  402ec4:	910283e5 	add	x5, sp, #0xa0
  402ec8:	910263e4 	add	x4, sp, #0x98
  402ecc:	910243e3 	add	x3, sp, #0x90
  402ed0:	910223e2 	add	x2, sp, #0x88
  402ed4:	910203e1 	add	x1, sp, #0x80
  402ed8:	aa1803e0 	mov	x0, x24
  402edc:	94000849 	bl	405000 <_nl_explode_name>
  402ee0:	2a0003fb 	mov	w27, w0
  402ee4:	3100041f 	cmn	w0, #0x1
  402ee8:	540003c0 	b.eq	402f60 <_nl_find_domain+0x200>  // b.none
  402eec:	9125e35a 	add	x26, x26, #0x978
  402ef0:	aa1a03e0 	mov	x0, x26
  402ef4:	9400329b 	bl	40f960 <___pthread_rwlock_wrlock>
  402ef8:	aa1703e0 	mov	x0, x23
  402efc:	97fff501 	bl	400300 <.plt+0x60>
  402f00:	a94823e4 	ldp	x4, x8, [sp, #128]
  402f04:	91000402 	add	x2, x0, #0x1
  402f08:	a9491be5 	ldp	x5, x6, [sp, #144]
  402f0c:	52800020 	mov	w0, #0x1                   	// #1
  402f10:	f94053e7 	ldr	x7, [sp, #160]
  402f14:	aa1703e1 	mov	x1, x23
  402f18:	2a1b03e3 	mov	w3, w27
  402f1c:	a90067e8 	stp	x8, x25, [sp]
  402f20:	b90013e0 	str	w0, [sp, #16]
  402f24:	9100e340 	add	x0, x26, #0x38
  402f28:	9400068a 	bl	404950 <_nl_make_l10nflist>
  402f2c:	aa0003f3 	mov	x19, x0
  402f30:	aa1a03e0 	mov	x0, x26
  402f34:	940031ff 	bl	40f730 <___pthread_rwlock_unlock>
  402f38:	b4000133 	cbz	x19, 402f5c <_nl_find_domain+0x1fc>
  402f3c:	b9400a60 	ldr	w0, [x19, #8]
  402f40:	7100001f 	cmp	w0, #0x0
  402f44:	5400038d 	b.le	402fb4 <_nl_find_domain+0x254>
  402f48:	f9400a60 	ldr	x0, [x19, #16]
  402f4c:	b4000160 	cbz	x0, 402f78 <_nl_find_domain+0x218>
  402f50:	b400007c 	cbz	x28, 402f5c <_nl_find_domain+0x1fc>
  402f54:	aa1803e0 	mov	x0, x24
  402f58:	940045d6 	bl	4146b0 <__free>
  402f5c:	3700007b 	tbnz	w27, #0, 402f68 <_nl_find_domain+0x208>
  402f60:	a94773fb 	ldp	x27, x28, [sp, #112]
  402f64:	17ffffa9 	b	402e08 <_nl_find_domain+0xa8>
  402f68:	f94053e0 	ldr	x0, [sp, #160]
  402f6c:	940045d1 	bl	4146b0 <__free>
  402f70:	a94773fb 	ldp	x27, x28, [sp, #112]
  402f74:	17ffffa5 	b	402e08 <_nl_find_domain+0xa8>
  402f78:	f9401260 	ldr	x0, [x19, #32]
  402f7c:	b4fffea0 	cbz	x0, 402f50 <_nl_find_domain+0x1f0>
  402f80:	91008274 	add	x20, x19, #0x20
  402f84:	14000006 	b	402f9c <_nl_find_domain+0x23c>
  402f88:	f9400280 	ldr	x0, [x20]
  402f8c:	f9400800 	ldr	x0, [x0, #16]
  402f90:	b5fffe00 	cbnz	x0, 402f50 <_nl_find_domain+0x1f0>
  402f94:	f8408e80 	ldr	x0, [x20, #8]!
  402f98:	b4fffdc0 	cbz	x0, 402f50 <_nl_find_domain+0x1f0>
  402f9c:	b9400801 	ldr	w1, [x0, #8]
  402fa0:	7100003f 	cmp	w1, #0x0
  402fa4:	54ffff2c 	b.gt	402f88 <_nl_find_domain+0x228>
  402fa8:	aa1603e1 	mov	x1, x22
  402fac:	94000009 	bl	402fd0 <_nl_load_domain>
  402fb0:	17fffff6 	b	402f88 <_nl_find_domain+0x228>
  402fb4:	aa1603e1 	mov	x1, x22
  402fb8:	aa1303e0 	mov	x0, x19
  402fbc:	94000005 	bl	402fd0 <_nl_load_domain>
  402fc0:	17ffffe2 	b	402f48 <_nl_find_domain+0x1e8>
  402fc4:	a90773fb 	stp	x27, x28, [sp, #112]
  402fc8:	9400673a 	bl	41ccb0 <__stack_chk_fail>
  402fcc:	d503201f 	nop

0000000000402fd0 <_nl_load_domain>:
  402fd0:	a9a67bfd 	stp	x29, x30, [sp, #-416]!
  402fd4:	910003fd 	mov	x29, sp
  402fd8:	a90153f3 	stp	x19, x20, [sp, #16]
  402fdc:	900004b3 	adrp	x19, 496000 <_IO_strn_jumps+0x88>
  402fe0:	aa0003f4 	mov	x20, x0
  402fe4:	a9025bf5 	stp	x21, x22, [sp, #32]
  402fe8:	9126e276 	add	x22, x19, #0x9b8
  402fec:	b0000495 	adrp	x21, 493000 <tunable_list+0x528>
  402ff0:	a90363f7 	stp	x23, x24, [sp, #48]
  402ff4:	d53bd057 	mrs	x23, tpidr_el0
  402ff8:	d11f02f8 	sub	x24, x23, #0x7c0
  402ffc:	f945faa3 	ldr	x3, [x21, #3056]
  403000:	a9046bf9 	stp	x25, x26, [sp, #64]
  403004:	aa0103f9 	mov	x25, x1
  403008:	f94006c2 	ldr	x2, [x22, #8]
  40300c:	f9400064 	ldr	x4, [x3]
  403010:	f900cfe4 	str	x4, [sp, #408]
  403014:	d2800004 	mov	x4, #0x0                   	// #0
  403018:	eb18005f 	cmp	x2, x24
  40301c:	54000100 	b.eq	40303c <_nl_load_domain+0x6c>  // b.none
  403020:	aa1603e2 	mov	x2, x22
  403024:	52800021 	mov	w1, #0x1                   	// #1
  403028:	52800000 	mov	w0, #0x0                   	// #0
  40302c:	940141d5 	bl	453780 <__aarch64_cas4_acq>
  403030:	350029c0 	cbnz	w0, 403568 <_nl_load_domain+0x598>
  403034:	9126e260 	add	x0, x19, #0x9b8
  403038:	f9000418 	str	x24, [x0, #8]
  40303c:	9126e276 	add	x22, x19, #0x9b8
  403040:	b9400a80 	ldr	w0, [x20, #8]
  403044:	b94006c2 	ldr	w2, [x22, #4]
  403048:	11000441 	add	w1, w2, #0x1
  40304c:	b90006c1 	str	w1, [x22, #4]
  403050:	35001ea0 	cbnz	w0, 403424 <_nl_load_domain+0x454>
  403054:	f9400280 	ldr	x0, [x20]
  403058:	12800001 	mov	w1, #0xffffffff            	// #-1
  40305c:	b9000a81 	str	w1, [x20, #8]
  403060:	f9000a9f 	str	xzr, [x20, #16]
  403064:	b4001dc0 	cbz	x0, 40341c <_nl_load_domain+0x44c>
  403068:	52800001 	mov	w1, #0x0                   	// #0
  40306c:	94005f7d 	bl	41ae60 <__open64_nocancel>
  403070:	2a0003f8 	mov	w24, w0
  403074:	3100041f 	cmn	w0, #0x1
  403078:	54002720 	b.eq	40355c <_nl_load_domain+0x58c>  // b.none
  40307c:	910463e1 	add	x1, sp, #0x118
  403080:	94005c64 	bl	41a210 <__fstat>
  403084:	2a0003fa 	mov	w26, w0
  403088:	35001c00 	cbnz	w0, 403408 <_nl_load_domain+0x438>
  40308c:	a90573fb 	stp	x27, x28, [sp, #80]
  403090:	f940a7fc 	ldr	x28, [sp, #328]
  403094:	f100bf9f 	cmp	x28, #0x2f
  403098:	54003629 	b.ls	40375c <_nl_load_domain+0x78c>  // b.plast
  40309c:	2a1803e4 	mov	w4, w24
  4030a0:	aa1c03e1 	mov	x1, x28
  4030a4:	d2800005 	mov	x5, #0x0                   	// #0
  4030a8:	52800043 	mov	w3, #0x2                   	// #2
  4030ac:	52800022 	mov	w2, #0x1                   	// #1
  4030b0:	d2800000 	mov	x0, #0x0                   	// #0
  4030b4:	94006037 	bl	41b190 <__mmap64>
  4030b8:	aa0003fb 	mov	x27, x0
  4030bc:	b100041f 	cmn	x0, #0x1
  4030c0:	54002f00 	b.eq	4036a0 <_nl_load_domain+0x6d0>  // b.none
  4030c4:	2a1803e0 	mov	w0, w24
  4030c8:	94005eee 	bl	41ac80 <__close_nocancel>
  4030cc:	b9400363 	ldr	w3, [x27]
  4030d0:	52825bc1 	mov	w1, #0x12de                	// #4830
  4030d4:	72b2a081 	movk	w1, #0x9504, lsl #16
  4030d8:	528092a0 	mov	w0, #0x495                 	// #1173
  4030dc:	6b01007f 	cmp	w3, w1
  4030e0:	72bbc240 	movk	w0, #0xde12, lsl #16
  4030e4:	1a9f07f7 	cset	w23, ne  // ne = any
  4030e8:	710002ff 	cmp	w23, #0x0
  4030ec:	7a401064 	ccmp	w3, w0, #0x4, ne  // ne = any
  4030f0:	54002641 	b.ne	4035b8 <_nl_load_domain+0x5e8>  // b.any
  4030f4:	5280003a 	mov	w26, #0x1                   	// #1
  4030f8:	d2801900 	mov	x0, #0xc8                  	// #200
  4030fc:	b90063e3 	str	w3, [sp, #96]
  403100:	9400440c 	bl	414130 <__libc_malloc>
  403104:	aa0003f8 	mov	x24, x0
  403108:	b94063e3 	ldr	w3, [sp, #96]
  40310c:	b4002040 	cbz	x0, 403514 <_nl_load_domain+0x544>
  403110:	b9400760 	ldr	w0, [x27, #4]
  403114:	52825bc1 	mov	w1, #0x12de                	// #4830
  403118:	f900031b 	str	x27, [x24]
  40311c:	72b2a081 	movk	w1, #0x9504, lsl #16
  403120:	b9000b1a 	str	w26, [x24, #8]
  403124:	f9000a98 	str	x24, [x20, #16]
  403128:	f9000b1c 	str	x28, [x24, #16]
  40312c:	b9001b17 	str	w23, [x24, #24]
  403130:	f900131f 	str	xzr, [x24, #32]
  403134:	6b01007f 	cmp	w3, w1
  403138:	54001a60 	b.eq	403484 <_nl_load_domain+0x4b4>  // b.none
  40313c:	5ac00800 	rev	w0, w0
  403140:	2a0003e7 	mov	w7, w0
  403144:	13107c01 	asr	w1, w0, #16
  403148:	7100043f 	cmp	w1, #0x1
  40314c:	54001ee8 	b.hi	403528 <_nl_load_domain+0x558>  // b.pmore
  403150:	29410b64 	ldp	w4, w2, [x27, #8]
  403154:	29422361 	ldp	w1, w8, [x27, #16]
  403158:	5ac00842 	rev	w2, w2
  40315c:	8b020362 	add	x2, x27, x2
  403160:	5ac00884 	rev	w4, w4
  403164:	5ac00821 	rev	w1, w1
  403168:	5ac00905 	rev	w5, w8
  40316c:	8b010361 	add	x1, x27, x1
  403170:	b9002b04 	str	w4, [x24, #40]
  403174:	a9030702 	stp	x2, x1, [x24, #48]
  403178:	b9005b05 	str	w5, [x24, #88]
  40317c:	b90063e5 	str	w5, [sp, #96]
  403180:	710008bf 	cmp	w5, #0x2
  403184:	540019c9 	b.ls	4034bc <_nl_load_domain+0x4ec>  // b.plast
  403188:	b9401b61 	ldr	w1, [x27, #24]
  40318c:	b9006b17 	str	w23, [x24, #104]
  403190:	5ac00821 	rev	w1, w1
  403194:	8b010361 	add	x1, x27, x1
  403198:	f9003301 	str	x1, [x24, #96]
  40319c:	f90043e1 	str	x1, [sp, #128]
  4031a0:	72003c1f 	tst	w0, #0xffff
  4031a4:	54001940 	b.eq	4034cc <_nl_load_domain+0x4fc>  // b.none
  4031a8:	b9402760 	ldr	w0, [x27, #36]
  4031ac:	5ac00801 	rev	w1, w0
  4031b0:	b9006be1 	str	w1, [sp, #104]
  4031b4:	340018c0 	cbz	w0, 4034cc <_nl_load_domain+0x4fc>
  4031b8:	2943db60 	ldp	w0, w22, [x27, #28]
  4031bc:	5ac00ad6 	rev	w22, w22
  4031c0:	5ac00800 	rev	w0, w0
  4031c4:	b9007be0 	str	w0, [sp, #120]
  4031c8:	b9407bf7 	ldr	w23, [sp, #120]
  4031cc:	d2800101 	mov	x1, #0x8                   	// #8
  4031d0:	8b160376 	add	x22, x27, x22
  4031d4:	b90073e3 	str	w3, [sp, #112]
  4031d8:	aa1703e0 	mov	x0, x23
  4031dc:	94004755 	bl	414f30 <__calloc>
  4031e0:	aa0003e7 	mov	x7, x0
  4031e4:	b4001a20 	cbz	x0, 403528 <_nl_load_domain+0x558>
  4031e8:	b9407be1 	ldr	w1, [sp, #120]
  4031ec:	d37df2e0 	lsl	x0, x23, #3
  4031f0:	b94073e3 	ldr	w3, [sp, #112]
  4031f4:	910012c8 	add	x8, x22, #0x4
  4031f8:	d2800002 	mov	x2, #0x0                   	// #0
  4031fc:	34000681 	cbz	w1, 4032cc <_nl_load_domain+0x2fc>
  403200:	f00002a1 	adrp	x1, 45a000 <ex5_shuffle_pattern+0x7a0>
  403204:	f00002a4 	adrp	x4, 45a000 <ex5_shuffle_pattern+0x7a0>
  403208:	91078037 	add	x23, x1, #0x1e0
  40320c:	9106c084 	add	x4, x4, #0x1b0
  403210:	d00002a1 	adrp	x1, 459000 <free_modules_db>
  403214:	912a0021 	add	x1, x1, #0xa80
  403218:	f9003be4 	str	x4, [sp, #112]
  40321c:	f00002a4 	adrp	x4, 45a000 <ex5_shuffle_pattern+0x7a0>
  403220:	f90047e1 	str	x1, [sp, #136]
  403224:	d00002a1 	adrp	x1, 459000 <free_modules_db>
  403228:	91066092 	add	x18, x4, #0x198
  40322c:	91388026 	add	x6, x1, #0xe20
  403230:	f00002aa 	adrp	x10, 45a000 <ex5_shuffle_pattern+0x7a0>
  403234:	f00002af 	adrp	x15, 45a000 <ex5_shuffle_pattern+0x7a0>
  403238:	f00002ae 	adrp	x14, 45a000 <ex5_shuffle_pattern+0x7a0>
  40323c:	f00002ad 	adrp	x13, 45a000 <ex5_shuffle_pattern+0x7a0>
  403240:	f00002ac 	adrp	x12, 45a000 <ex5_shuffle_pattern+0x7a0>
  403244:	52825bc9 	mov	w9, #0x12de                	// #4830
  403248:	f00002a4 	adrp	x4, 45a000 <ex5_shuffle_pattern+0x7a0>
  40324c:	90000341 	adrp	x1, 46b000 <translit_from_idx+0xe20>
  403250:	9107614a 	add	x10, x10, #0x1d8
  403254:	910741ef 	add	x15, x15, #0x1d0
  403258:	910721ce 	add	x14, x14, #0x1c8
  40325c:	910701ad 	add	x13, x13, #0x1c0
  403260:	9106e18c 	add	x12, x12, #0x1b8
  403264:	91068085 	add	x5, x4, #0x1a0
  403268:	9135e03e 	add	x30, x1, #0xd78
  40326c:	72b2a089 	movk	w9, #0x9504, lsl #16
  403270:	b8626901 	ldr	w1, [x8, x2]
  403274:	b8626ac4 	ldr	w4, [x22, x2]
  403278:	6b09007f 	cmp	w3, w9
  40327c:	54001ac0 	b.eq	4035d4 <_nl_load_domain+0x604>  // b.none
  403280:	5ac00821 	rev	w1, w1
  403284:	5ac00884 	rev	w4, w4
  403288:	8b010361 	add	x1, x27, x1
  40328c:	34002764 	cbz	w4, 403778 <_nl_load_domain+0x7a8>
  403290:	51000484 	sub	w4, w4, #0x1
  403294:	38644824 	ldrb	w4, [x1, w4, uxtw]
  403298:	35002704 	cbnz	w4, 403778 <_nl_load_domain+0x7a8>
  40329c:	39400024 	ldrb	w4, [x1]
  4032a0:	7101409f 	cmp	w4, #0x50
  4032a4:	540019c0 	b.eq	4035dc <_nl_load_domain+0x60c>  // b.none
  4032a8:	7101249f 	cmp	w4, #0x49
  4032ac:	540026e1 	b.ne	403788 <_nl_load_domain+0x7b8>  // b.any
  4032b0:	39400421 	ldrb	w1, [x1, #1]
  4032b4:	7100003f 	cmp	w1, #0x0
  4032b8:	9a9f0144 	csel	x4, x10, xzr, eq  // eq = none
  4032bc:	f82268e4 	str	x4, [x7, x2]
  4032c0:	91002042 	add	x2, x2, #0x8
  4032c4:	eb02001f 	cmp	x0, x2
  4032c8:	54fffd41 	b.ne	403270 <_nl_load_domain+0x2a0>  // b.any
  4032cc:	52825bc2 	mov	w2, #0x12de                	// #4830
  4032d0:	29450361 	ldp	w1, w0, [x27, #40]
  4032d4:	72b2a082 	movk	w2, #0x9504, lsl #16
  4032d8:	6b02007f 	cmp	w3, w2
  4032dc:	54002960 	b.eq	403808 <_nl_load_domain+0x838>  // b.none
  4032e0:	5ac00821 	rev	w1, w1
  4032e4:	5ac00800 	rev	w0, w0
  4032e8:	8b010361 	add	x1, x27, x1
  4032ec:	f90057e1 	str	x1, [sp, #168]
  4032f0:	f94033e1 	ldr	x1, [sp, #96]
  4032f4:	a90ce7f4 	stp	x20, x25, [sp, #200]
  4032f8:	b9407bf9 	ldr	w25, [sp, #120]
  4032fc:	8b000360 	add	x0, x27, x0
  403300:	2a0303f6 	mov	w22, w3
  403304:	d37e7c21 	ubfiz	x1, x1, #2, #32
  403308:	f90053e1 	str	x1, [sp, #160]
  40330c:	b900b3fa 	str	w26, [sp, #176]
  403310:	aa0703fa 	mov	x26, x7
  403314:	a90be3fc 	stp	x28, x24, [sp, #184]
  403318:	f9006fe1 	str	x1, [sp, #216]
  40331c:	d2800001 	mov	x1, #0x0                   	// #0
  403320:	aa0103f8 	mov	x24, x1
  403324:	f9003bfb 	str	x27, [sp, #112]
  403328:	f90047e0 	str	x0, [sp, #136]
  40332c:	910423e0 	add	x0, sp, #0x108
  403330:	f9004be0 	str	x0, [sp, #144]
  403334:	b9009fff 	str	wzr, [sp, #156]
  403338:	f9404bfc 	ldr	x28, [sp, #144]
  40333c:	52800017 	mov	w23, #0x0                   	// #0
  403340:	52825bc0 	mov	w0, #0x12de                	// #4830
  403344:	72b2a080 	movk	w0, #0x9504, lsl #16
  403348:	6b0002df 	cmp	w22, w0
  40334c:	54001fc0 	b.eq	403744 <_nl_load_domain+0x774>  // b.none
  403350:	34002537 	cbz	w23, 4037f4 <_nl_load_domain+0x824>
  403354:	f94047e0 	ldr	x0, [sp, #136]
  403358:	b8787802 	ldr	w2, [x0, x24, lsl #2]
  40335c:	5ac00842 	rev	w2, w2
  403360:	f9403be0 	ldr	x0, [sp, #112]
  403364:	d2800014 	mov	x20, #0x0                   	// #0
  403368:	8b020002 	add	x2, x0, x2
  40336c:	b9400840 	ldr	w0, [x2, #8]
  403370:	3100041f 	cmn	w0, #0x1
  403374:	1a9f07e0 	cset	w0, ne  // ne = any
  403378:	350020c0 	cbnz	w0, 403790 <_nl_load_domain+0x7c0>
  40337c:	f8008794 	str	x20, [x28], #8
  403380:	34001eb7 	cbz	w23, 403754 <_nl_load_domain+0x784>
  403384:	b9409fe1 	ldr	w1, [sp, #156]
  403388:	f94087e0 	ldr	x0, [sp, #264]
  40338c:	11000421 	add	w1, w1, #0x1
  403390:	b9009fe1 	str	w1, [sp, #156]
  403394:	f9408be1 	ldr	x1, [sp, #272]
  403398:	8b010000 	add	x0, x0, x1
  40339c:	f94053e1 	ldr	x1, [sp, #160]
  4033a0:	8b000020 	add	x0, x1, x0
  4033a4:	f90053e0 	str	x0, [sp, #160]
  4033a8:	b9406be0 	ldr	w0, [sp, #104]
  4033ac:	91000718 	add	x24, x24, #0x1
  4033b0:	6b18001f 	cmp	w0, w24
  4033b4:	54fffc28 	b.hi	403338 <_nl_load_domain+0x368>  // b.pmore
  4033b8:	b9409fe0 	ldr	w0, [sp, #156]
  4033bc:	aa1a03e7 	mov	x7, x26
  4033c0:	2a1603e3 	mov	w3, w22
  4033c4:	b940b3fa 	ldr	w26, [sp, #176]
  4033c8:	f9403bfb 	ldr	x27, [sp, #112]
  4033cc:	a94be3fc 	ldp	x28, x24, [sp, #184]
  4033d0:	a94ce7f4 	ldp	x20, x25, [sp, #200]
  4033d4:	350033c0 	cbnz	w0, 403a4c <_nl_load_domain+0xa7c>
  4033d8:	b900431f 	str	wzr, [x24, #64]
  4033dc:	a904ff1f 	stp	xzr, xzr, [x24, #72]
  4033e0:	aa0703e0 	mov	x0, x7
  4033e4:	940044b3 	bl	4146b0 <__free>
  4033e8:	1400003b 	b	4034d4 <_nl_load_domain+0x504>
  4033ec:	b100041f 	cmn	x0, #0x1
  4033f0:	54000081 	b.ne	403400 <_nl_load_domain+0x430>  // b.any
  4033f4:	b8766ae0 	ldr	w0, [x23, x22]
  4033f8:	7100101f 	cmp	w0, #0x4
  4033fc:	54001680 	b.eq	4036cc <_nl_load_domain+0x6fc>  // b.none
  403400:	a94573fb 	ldp	x27, x28, [sp, #80]
  403404:	2a1a03f8 	mov	w24, w26
  403408:	2a1803e0 	mov	w0, w24
  40340c:	94005e1d 	bl	41ac80 <__close_nocancel>
  403410:	9126e260 	add	x0, x19, #0x9b8
  403414:	b9400402 	ldr	w2, [x0, #4]
  403418:	51000442 	sub	w2, w2, #0x1
  40341c:	52800020 	mov	w0, #0x1                   	// #1
  403420:	b9000a80 	str	w0, [x20, #8]
  403424:	9126e273 	add	x19, x19, #0x9b8
  403428:	b9000662 	str	w2, [x19, #4]
  40342c:	340001a2 	cbz	w2, 403460 <_nl_load_domain+0x490>
  403430:	f945fab5 	ldr	x21, [x21, #3056]
  403434:	f940cfe0 	ldr	x0, [sp, #408]
  403438:	f94002a1 	ldr	x1, [x21]
  40343c:	eb010000 	subs	x0, x0, x1
  403440:	d2800001 	mov	x1, #0x0                   	// #0
  403444:	540051c1 	b.ne	403e7c <_nl_load_domain+0xeac>  // b.any
  403448:	a94153f3 	ldp	x19, x20, [sp, #16]
  40344c:	a9425bf5 	ldp	x21, x22, [sp, #32]
  403450:	a94363f7 	ldp	x23, x24, [sp, #48]
  403454:	a9446bf9 	ldp	x25, x26, [sp, #64]
  403458:	a8da7bfd 	ldp	x29, x30, [sp], #416
  40345c:	d65f03c0 	ret
  403460:	aa1303e1 	mov	x1, x19
  403464:	52800000 	mov	w0, #0x0                   	// #0
  403468:	f900067f 	str	xzr, [x19, #8]
  40346c:	94014159 	bl	4539d0 <__aarch64_swp4_rel>
  403470:	7100041f 	cmp	w0, #0x1
  403474:	54fffded 	b.le	403430 <_nl_load_domain+0x460>
  403478:	aa1303e0 	mov	x0, x19
  40347c:	94002f32 	bl	40f144 <__lll_lock_wake_private>
  403480:	17ffffec 	b	403430 <_nl_load_domain+0x460>
  403484:	13107c01 	asr	w1, w0, #16
  403488:	2a0003e7 	mov	w7, w0
  40348c:	7100043f 	cmp	w1, #0x1
  403490:	540004c8 	b.hi	403528 <_nl_load_domain+0x558>  // b.pmore
  403494:	29421761 	ldp	w1, w5, [x27, #16]
  403498:	b90063e5 	str	w5, [sp, #96]
  40349c:	29410b64 	ldp	w4, w2, [x27, #8]
  4034a0:	8b010361 	add	x1, x27, x1
  4034a4:	b9002b04 	str	w4, [x24, #40]
  4034a8:	8b020362 	add	x2, x27, x2
  4034ac:	a9030702 	stp	x2, x1, [x24, #48]
  4034b0:	b9005b05 	str	w5, [x24, #88]
  4034b4:	710008bf 	cmp	w5, #0x2
  4034b8:	54000668 	b.hi	403584 <_nl_load_domain+0x5b4>  // b.pmore
  4034bc:	f900331f 	str	xzr, [x24, #96]
  4034c0:	b9006b17 	str	w23, [x24, #104]
  4034c4:	72003cff 	tst	w7, #0xffff
  4034c8:	54000301 	b.ne	403528 <_nl_load_domain+0x558>  // b.any
  4034cc:	b900431f 	str	wzr, [x24, #64]
  4034d0:	a904ff1f 	stp	xzr, xzr, [x24, #72]
  4034d4:	d2800001 	mov	x1, #0x0                   	// #0
  4034d8:	a9077f1f 	stp	xzr, xzr, [x24, #112]
  4034dc:	91020300 	add	x0, x24, #0x80
  4034e0:	94002fd4 	bl	40f430 <___pthread_rwlock_init>
  4034e4:	90000342 	adrp	x2, 46b000 <translit_from_idx+0xe20>
  4034e8:	aa1903e1 	mov	x1, x25
  4034ec:	910403e4 	add	x4, sp, #0x100
  4034f0:	91380042 	add	x2, x2, #0xe00
  4034f4:	aa1403e0 	mov	x0, x20
  4034f8:	52800003 	mov	w3, #0x0                   	// #0
  4034fc:	97fffa19 	bl	401d60 <_nl_find_msg>
  403500:	b100041f 	cmn	x0, #0x1
  403504:	540017e0 	b.eq	403800 <_nl_load_domain+0x830>  // b.none
  403508:	91030302 	add	x2, x24, #0xc0
  40350c:	9102e301 	add	x1, x24, #0xb8
  403510:	9400099c 	bl	405b80 <__gettext_extract_plural>
  403514:	9126e260 	add	x0, x19, #0x9b8
  403518:	a94573fb 	ldp	x27, x28, [sp, #80]
  40351c:	b9400402 	ldr	w2, [x0, #4]
  403520:	51000442 	sub	w2, w2, #0x1
  403524:	17ffffbe 	b	40341c <_nl_load_domain+0x44c>
  403528:	d2800000 	mov	x0, #0x0                   	// #0
  40352c:	94004461 	bl	4146b0 <__free>
  403530:	3500023a 	cbnz	w26, 403574 <_nl_load_domain+0x5a4>
  403534:	aa1b03e0 	mov	x0, x27
  403538:	9400445e 	bl	4146b0 <__free>
  40353c:	aa1803e0 	mov	x0, x24
  403540:	9400445c 	bl	4146b0 <__free>
  403544:	9126e260 	add	x0, x19, #0x9b8
  403548:	a94573fb 	ldp	x27, x28, [sp, #80]
  40354c:	f9000a9f 	str	xzr, [x20, #16]
  403550:	b9400402 	ldr	w2, [x0, #4]
  403554:	51000442 	sub	w2, w2, #0x1
  403558:	17ffffb1 	b	40341c <_nl_load_domain+0x44c>
  40355c:	b94006c2 	ldr	w2, [x22, #4]
  403560:	51000442 	sub	w2, w2, #0x1
  403564:	17ffffae 	b	40341c <_nl_load_domain+0x44c>
  403568:	aa1603e0 	mov	x0, x22
  40356c:	94002eb5 	bl	40f040 <__lll_lock_wait_private>
  403570:	17fffeb1 	b	403034 <_nl_load_domain+0x64>
  403574:	aa1c03e1 	mov	x1, x28
  403578:	aa1b03e0 	mov	x0, x27
  40357c:	94005f21 	bl	41b200 <__munmap>
  403580:	17ffffef 	b	40353c <_nl_load_domain+0x56c>
  403584:	b9401b61 	ldr	w1, [x27, #24]
  403588:	b9006b17 	str	w23, [x24, #104]
  40358c:	8b010361 	add	x1, x27, x1
  403590:	f9003301 	str	x1, [x24, #96]
  403594:	f90043e1 	str	x1, [sp, #128]
  403598:	72003c1f 	tst	w0, #0xffff
  40359c:	54fff980 	b.eq	4034cc <_nl_load_domain+0x4fc>  // b.none
  4035a0:	b9402760 	ldr	w0, [x27, #36]
  4035a4:	b9006be0 	str	w0, [sp, #104]
  4035a8:	34fff920 	cbz	w0, 4034cc <_nl_load_domain+0x4fc>
  4035ac:	2943db60 	ldp	w0, w22, [x27, #28]
  4035b0:	b9007be0 	str	w0, [sp, #120]
  4035b4:	17ffff05 	b	4031c8 <_nl_load_domain+0x1f8>
  4035b8:	aa1c03e1 	mov	x1, x28
  4035bc:	aa1b03e0 	mov	x0, x27
  4035c0:	94005f10 	bl	41b200 <__munmap>
  4035c4:	b94006c2 	ldr	w2, [x22, #4]
  4035c8:	a94573fb 	ldp	x27, x28, [sp, #80]
  4035cc:	51000442 	sub	w2, w2, #0x1
  4035d0:	17ffff93 	b	40341c <_nl_load_domain+0x44c>
  4035d4:	8b214361 	add	x1, x27, w1, uxtw
  4035d8:	17ffff2d 	b	40328c <_nl_load_domain+0x2bc>
  4035dc:	3940042b 	ldrb	w11, [x1, #1]
  4035e0:	d2800004 	mov	x4, #0x0                   	// #0
  4035e4:	7101497f 	cmp	w11, #0x52
  4035e8:	54ffe6a1 	b.ne	4032bc <_nl_load_domain+0x2ec>  // b.any
  4035ec:	3940082b 	ldrb	w11, [x1, #2]
  4035f0:	7101257f 	cmp	w11, #0x49
  4035f4:	54ffe641 	b.ne	4032bc <_nl_load_domain+0x2ec>  // b.any
  4035f8:	39400c2b 	ldrb	w11, [x1, #3]
  4035fc:	7101917f 	cmp	w11, #0x64
  403600:	1a9f17f1 	cset	w17, eq  // eq = none
  403604:	7101a57f 	cmp	w11, #0x69
  403608:	1a9f17f0 	cset	w16, eq  // eq = none
  40360c:	2a100230 	orr	w16, w17, w16
  403610:	b90093f0 	str	w16, [sp, #144]
  403614:	35000130 	cbnz	w16, 403638 <_nl_load_domain+0x668>
  403618:	51016170 	sub	w16, w11, #0x58
  40361c:	12001e10 	and	w16, w16, #0xff
  403620:	7100821f 	cmp	w16, #0x20
  403624:	54ffe4c8 	b.hi	4032bc <_nl_load_domain+0x2ec>  // b.pmore
  403628:	b20003f1 	mov	x17, #0x100000001           	// #4294967297
  40362c:	f2a41011 	movk	x17, #0x2080, lsl #16
  403630:	9ad02630 	lsr	x16, x17, x16
  403634:	3607e450 	tbz	w16, #0, 4032bc <_nl_load_domain+0x2ec>
  403638:	39401024 	ldrb	w4, [x1, #4]
  40363c:	7100e09f 	cmp	w4, #0x38
  403640:	54001a80 	b.eq	403990 <_nl_load_domain+0x9c0>  // b.none
  403644:	7100c49f 	cmp	w4, #0x31
  403648:	54001c60 	b.eq	4039d4 <_nl_load_domain+0xa04>  // b.none
  40364c:	7100cc9f 	cmp	w4, #0x33
  403650:	54000e41 	b.ne	403818 <_nl_load_domain+0x848>  // b.any
  403654:	39401430 	ldrb	w16, [x1, #5]
  403658:	d2800004 	mov	x4, #0x0                   	// #0
  40365c:	7100ca1f 	cmp	w16, #0x32
  403660:	54ffe2e1 	b.ne	4032bc <_nl_load_domain+0x2ec>  // b.any
  403664:	39401821 	ldrb	w1, [x1, #6]
  403668:	35ffe2a1 	cbnz	w1, 4032bc <_nl_load_domain+0x2ec>
  40366c:	7101917f 	cmp	w11, #0x64
  403670:	540043e0 	b.eq	403eec <_nl_load_domain+0xf1c>  // b.none
  403674:	b94093e1 	ldr	w1, [sp, #144]
  403678:	350043e1 	cbnz	w1, 403ef4 <_nl_load_domain+0xf24>
  40367c:	7101bd7f 	cmp	w11, #0x6f
  403680:	54004460 	b.eq	403f0c <_nl_load_domain+0xf3c>  // b.none
  403684:	7101d57f 	cmp	w11, #0x75
  403688:	54005500 	b.eq	404128 <_nl_load_domain+0x1158>  // b.none
  40368c:	7101e17f 	cmp	w11, #0x78
  403690:	f00002a4 	adrp	x4, 45a000 <ex5_shuffle_pattern+0x7a0>
  403694:	9106a084 	add	x4, x4, #0x1a8
  403698:	9a8413c4 	csel	x4, x30, x4, ne  // ne = any
  40369c:	17ffff08 	b	4032bc <_nl_load_domain+0x2ec>
  4036a0:	aa1c03e0 	mov	x0, x28
  4036a4:	940042a3 	bl	414130 <__libc_malloc>
  4036a8:	aa0003fb 	mov	x27, x0
  4036ac:	b4000580 	cbz	x0, 40375c <_nl_load_domain+0x78c>
  4036b0:	90000496 	adrp	x22, 493000 <tunable_list+0x528>
  4036b4:	f946f2d6 	ldr	x22, [x22, #3552]
  4036b8:	b90063fa 	str	w26, [sp, #96]
  4036bc:	2a1803fa 	mov	w26, w24
  4036c0:	aa1c03f8 	mov	x24, x28
  4036c4:	f90037f9 	str	x25, [sp, #104]
  4036c8:	aa0003f9 	mov	x25, x0
  4036cc:	aa1803e2 	mov	x2, x24
  4036d0:	aa1903e1 	mov	x1, x25
  4036d4:	2a1a03e0 	mov	w0, w26
  4036d8:	94005e16 	bl	41af30 <__read_nocancel>
  4036dc:	f100001f 	cmp	x0, #0x0
  4036e0:	54ffe86d 	b.le	4033ec <_nl_load_domain+0x41c>
  4036e4:	8b000339 	add	x25, x25, x0
  4036e8:	eb000318 	subs	x24, x24, x0
  4036ec:	54ffff01 	b.ne	4036cc <_nl_load_domain+0x6fc>  // b.any
  4036f0:	2a1a03e0 	mov	w0, w26
  4036f4:	b94063fa 	ldr	w26, [sp, #96]
  4036f8:	f94037f9 	ldr	x25, [sp, #104]
  4036fc:	94005d61 	bl	41ac80 <__close_nocancel>
  403700:	b9400363 	ldr	w3, [x27]
  403704:	52825bc1 	mov	w1, #0x12de                	// #4830
  403708:	72b2a081 	movk	w1, #0x9504, lsl #16
  40370c:	528092a0 	mov	w0, #0x495                 	// #1173
  403710:	6b01007f 	cmp	w3, w1
  403714:	72bbc240 	movk	w0, #0xde12, lsl #16
  403718:	1a9f07f7 	cset	w23, ne  // ne = any
  40371c:	710002ff 	cmp	w23, #0x0
  403720:	7a401064 	ccmp	w3, w0, #0x4, ne  // ne = any
  403724:	54ffcea0 	b.eq	4030f8 <_nl_load_domain+0x128>  // b.none
  403728:	aa1b03e0 	mov	x0, x27
  40372c:	940043e1 	bl	4146b0 <__free>
  403730:	9126e260 	add	x0, x19, #0x9b8
  403734:	a94573fb 	ldp	x27, x28, [sp, #80]
  403738:	b9400402 	ldr	w2, [x0, #4]
  40373c:	51000442 	sub	w2, w2, #0x1
  403740:	17ffff37 	b	40341c <_nl_load_domain+0x44c>
  403744:	34000537 	cbz	w23, 4037e8 <_nl_load_domain+0x818>
  403748:	f94047e0 	ldr	x0, [sp, #136]
  40374c:	b8787802 	ldr	w2, [x0, x24, lsl #2]
  403750:	17ffff04 	b	403360 <_nl_load_domain+0x390>
  403754:	52800037 	mov	w23, #0x1                   	// #1
  403758:	17fffefa 	b	403340 <_nl_load_domain+0x370>
  40375c:	a94573fb 	ldp	x27, x28, [sp, #80]
  403760:	17ffff2a 	b	403408 <_nl_load_domain+0x438>
  403764:	a94be3fc 	ldp	x28, x24, [sp, #184]
  403768:	aa1a03e7 	mov	x7, x26
  40376c:	b940b3fa 	ldr	w26, [sp, #176]
  403770:	f9403bfb 	ldr	x27, [sp, #112]
  403774:	f94067f4 	ldr	x20, [sp, #200]
  403778:	aa0703e0 	mov	x0, x7
  40377c:	940043cd 	bl	4146b0 <__free>
  403780:	d2800000 	mov	x0, #0x0                   	// #0
  403784:	17ffff6a 	b	40352c <_nl_load_domain+0x55c>
  403788:	d2800004 	mov	x4, #0x0                   	// #0
  40378c:	17fffecc 	b	4032bc <_nl_load_domain+0x2ec>
  403790:	9100105b 	add	x27, x2, #0x4
  403794:	d2800001 	mov	x1, #0x0                   	// #0
  403798:	1400000d 	b	4037cc <_nl_load_domain+0x7fc>
  40379c:	5ac00863 	rev	w3, w3
  4037a0:	5ac00800 	rev	w0, w0
  4037a4:	8b010074 	add	x20, x3, x1
  4037a8:	3100041f 	cmn	w0, #0x1
  4037ac:	54ffde80 	b.eq	40337c <_nl_load_domain+0x3ac>  // b.none
  4037b0:	6b19001f 	cmp	w0, w25
  4037b4:	54fffd82 	b.cs	403764 <_nl_load_domain+0x794>  // b.hs, b.nlast
  4037b8:	f8605b40 	ldr	x0, [x26, w0, uxtw #3]
  4037bc:	b4ffdf60 	cbz	x0, 4033a8 <_nl_load_domain+0x3d8>
  4037c0:	97fff2d0 	bl	400300 <.plt+0x60>
  4037c4:	9100237b 	add	x27, x27, #0x8
  4037c8:	8b140001 	add	x1, x0, x20
  4037cc:	52825bc2 	mov	w2, #0x12de                	// #4830
  4037d0:	29400363 	ldp	w3, w0, [x27]
  4037d4:	72b2a082 	movk	w2, #0x9504, lsl #16
  4037d8:	6b0202df 	cmp	w22, w2
  4037dc:	54fffe01 	b.ne	40379c <_nl_load_domain+0x7cc>  // b.any
  4037e0:	8b234034 	add	x20, x1, w3, uxtw
  4037e4:	17fffff1 	b	4037a8 <_nl_load_domain+0x7d8>
  4037e8:	f94057e0 	ldr	x0, [sp, #168]
  4037ec:	b8787802 	ldr	w2, [x0, x24, lsl #2]
  4037f0:	17fffedc 	b	403360 <_nl_load_domain+0x390>
  4037f4:	f94057e0 	ldr	x0, [sp, #168]
  4037f8:	b8787802 	ldr	w2, [x0, x24, lsl #2]
  4037fc:	17fffed8 	b	40335c <_nl_load_domain+0x38c>
  403800:	f9401300 	ldr	x0, [x24, #32]
  403804:	17ffff4a 	b	40352c <_nl_load_domain+0x55c>
  403808:	8b214361 	add	x1, x27, w1, uxtw
  40380c:	2a0003e0 	mov	w0, w0
  403810:	f90057e1 	str	x1, [sp, #168]
  403814:	17fffeb7 	b	4032f0 <_nl_load_domain+0x320>
  403818:	7100d89f 	cmp	w4, #0x36
  40381c:	54000261 	b.ne	403868 <_nl_load_domain+0x898>  // b.any
  403820:	39401430 	ldrb	w16, [x1, #5]
  403824:	d2800004 	mov	x4, #0x0                   	// #0
  403828:	7100d21f 	cmp	w16, #0x34
  40382c:	54ffd481 	b.ne	4032bc <_nl_load_domain+0x2ec>  // b.any
  403830:	39401821 	ldrb	w1, [x1, #6]
  403834:	35ffd441 	cbnz	w1, 4032bc <_nl_load_domain+0x2ec>
  403838:	7101917f 	cmp	w11, #0x64
  40383c:	54003540 	b.eq	403ee4 <_nl_load_domain+0xf14>  // b.none
  403840:	b94093e1 	ldr	w1, [sp, #144]
  403844:	350045a1 	cbnz	w1, 4040f8 <_nl_load_domain+0x1128>
  403848:	7101bd7f 	cmp	w11, #0x6f
  40384c:	54003700 	b.eq	403f2c <_nl_load_domain+0xf5c>  // b.none
  403850:	7101d57f 	cmp	w11, #0x75
  403854:	54003680 	b.eq	403f24 <_nl_load_domain+0xf54>  // b.none
  403858:	f9403be1 	ldr	x1, [sp, #112]
  40385c:	7101e17f 	cmp	w11, #0x78
  403860:	9a8102e4 	csel	x4, x23, x1, eq  // eq = none
  403864:	17fffe96 	b	4032bc <_nl_load_domain+0x2ec>
  403868:	7101309f 	cmp	w4, #0x4c
  40386c:	54000341 	b.ne	4038d4 <_nl_load_domain+0x904>  // b.any
  403870:	39401430 	ldrb	w16, [x1, #5]
  403874:	d2800004 	mov	x4, #0x0                   	// #0
  403878:	7101161f 	cmp	w16, #0x45
  40387c:	54ffd201 	b.ne	4032bc <_nl_load_domain+0x2ec>  // b.any
  403880:	39401830 	ldrb	w16, [x1, #6]
  403884:	7101061f 	cmp	w16, #0x41
  403888:	54ffd1a1 	b.ne	4032bc <_nl_load_domain+0x2ec>  // b.any
  40388c:	39401c30 	ldrb	w16, [x1, #7]
  403890:	71014e1f 	cmp	w16, #0x53
  403894:	54ffd141 	b.ne	4032bc <_nl_load_domain+0x2ec>  // b.any
  403898:	39402030 	ldrb	w16, [x1, #8]
  40389c:	7101521f 	cmp	w16, #0x54
  4038a0:	54ffd0e1 	b.ne	4032bc <_nl_load_domain+0x2ec>  // b.any
  4038a4:	39402424 	ldrb	w4, [x1, #9]
  4038a8:	7100e09f 	cmp	w4, #0x38
  4038ac:	54003c20 	b.eq	404030 <_nl_load_domain+0x1060>  // b.none
  4038b0:	7100c49f 	cmp	w4, #0x31
  4038b4:	54003b40 	b.eq	40401c <_nl_load_domain+0x104c>  // b.none
  4038b8:	7100cc9f 	cmp	w4, #0x33
  4038bc:	540035a1 	b.ne	403f70 <_nl_load_domain+0xfa0>  // b.any
  4038c0:	39402824 	ldrb	w4, [x1, #10]
  4038c4:	7100c89f 	cmp	w4, #0x32
  4038c8:	54003360 	b.eq	403f34 <_nl_load_domain+0xf64>  // b.none
  4038cc:	d2800004 	mov	x4, #0x0                   	// #0
  4038d0:	17fffe7b 	b	4032bc <_nl_load_domain+0x2ec>
  4038d4:	7101189f 	cmp	w4, #0x46
  4038d8:	540002e1 	b.ne	403934 <_nl_load_domain+0x964>  // b.any
  4038dc:	39401430 	ldrb	w16, [x1, #5]
  4038e0:	d2800004 	mov	x4, #0x0                   	// #0
  4038e4:	7101061f 	cmp	w16, #0x41
  4038e8:	54ffcea1 	b.ne	4032bc <_nl_load_domain+0x2ec>  // b.any
  4038ec:	39401830 	ldrb	w16, [x1, #6]
  4038f0:	71014e1f 	cmp	w16, #0x53
  4038f4:	54ffce41 	b.ne	4032bc <_nl_load_domain+0x2ec>  // b.any
  4038f8:	39401c30 	ldrb	w16, [x1, #7]
  4038fc:	7101521f 	cmp	w16, #0x54
  403900:	54ffcde1 	b.ne	4032bc <_nl_load_domain+0x2ec>  // b.any
  403904:	39402024 	ldrb	w4, [x1, #8]
  403908:	7100e09f 	cmp	w4, #0x38
  40390c:	54004560 	b.eq	4041b8 <_nl_load_domain+0x11e8>  // b.none
  403910:	7100c49f 	cmp	w4, #0x31
  403914:	54004480 	b.eq	4041a4 <_nl_load_domain+0x11d4>  // b.none
  403918:	7100cc9f 	cmp	w4, #0x33
  40391c:	54004361 	b.ne	404188 <_nl_load_domain+0x11b8>  // b.any
  403920:	39402424 	ldrb	w4, [x1, #9]
  403924:	7100c89f 	cmp	w4, #0x32
  403928:	54004140 	b.eq	404150 <_nl_load_domain+0x1180>  // b.none
  40392c:	d2800004 	mov	x4, #0x0                   	// #0
  403930:	17fffe63 	b	4032bc <_nl_load_domain+0x2ec>
  403934:	7101349f 	cmp	w4, #0x4d
  403938:	54000741 	b.ne	403a20 <_nl_load_domain+0xa50>  // b.any
  40393c:	39401430 	ldrb	w16, [x1, #5]
  403940:	d2800004 	mov	x4, #0x0                   	// #0
  403944:	7101061f 	cmp	w16, #0x41
  403948:	54ffcba1 	b.ne	4032bc <_nl_load_domain+0x2ec>  // b.any
  40394c:	39401830 	ldrb	w16, [x1, #6]
  403950:	7101621f 	cmp	w16, #0x58
  403954:	54ffcb41 	b.ne	4032bc <_nl_load_domain+0x2ec>  // b.any
  403958:	39401c21 	ldrb	w1, [x1, #7]
  40395c:	35002d41 	cbnz	w1, 403f04 <_nl_load_domain+0xf34>
  403960:	7101917f 	cmp	w11, #0x64
  403964:	54003d60 	b.eq	404110 <_nl_load_domain+0x1140>  // b.none
  403968:	b94093e1 	ldr	w1, [sp, #144]
  40396c:	35003ce1 	cbnz	w1, 404108 <_nl_load_domain+0x1138>
  403970:	7101bd7f 	cmp	w11, #0x6f
  403974:	54003d60 	b.eq	404120 <_nl_load_domain+0x1150>  // b.none
  403978:	7101d57f 	cmp	w11, #0x75
  40397c:	54003ce0 	b.eq	404118 <_nl_load_domain+0x1148>  // b.none
  403980:	f9403be1 	ldr	x1, [sp, #112]
  403984:	7101e17f 	cmp	w11, #0x78
  403988:	9a971024 	csel	x4, x1, x23, ne  // ne = any
  40398c:	17fffe4c 	b	4032bc <_nl_load_domain+0x2ec>
  403990:	39401421 	ldrb	w1, [x1, #5]
  403994:	d2800004 	mov	x4, #0x0                   	// #0
  403998:	35ffc921 	cbnz	w1, 4032bc <_nl_load_domain+0x2ec>
  40399c:	f94047e4 	ldr	x4, [sp, #136]
  4039a0:	7101917f 	cmp	w11, #0x64
  4039a4:	54ffc8c0 	b.eq	4032bc <_nl_load_domain+0x2ec>  // b.none
  4039a8:	b94093e1 	ldr	w1, [sp, #144]
  4039ac:	35002701 	cbnz	w1, 403e8c <_nl_load_domain+0xebc>
  4039b0:	7101bd7f 	cmp	w11, #0x6f
  4039b4:	54002680 	b.eq	403e84 <_nl_load_domain+0xeb4>  // b.none
  4039b8:	7101d57f 	cmp	w11, #0x75
  4039bc:	54002a00 	b.eq	403efc <_nl_load_domain+0xf2c>  // b.none
  4039c0:	7101e17f 	cmp	w11, #0x78
  4039c4:	f00002a4 	adrp	x4, 45a000 <ex5_shuffle_pattern+0x7a0>
  4039c8:	9106a084 	add	x4, x4, #0x1a8
  4039cc:	9a8413c4 	csel	x4, x30, x4, ne  // ne = any
  4039d0:	17fffe3b 	b	4032bc <_nl_load_domain+0x2ec>
  4039d4:	39401430 	ldrb	w16, [x1, #5]
  4039d8:	d2800004 	mov	x4, #0x0                   	// #0
  4039dc:	7100da1f 	cmp	w16, #0x36
  4039e0:	54ffc6e1 	b.ne	4032bc <_nl_load_domain+0x2ec>  // b.any
  4039e4:	39401821 	ldrb	w1, [x1, #6]
  4039e8:	35ffc6a1 	cbnz	w1, 4032bc <_nl_load_domain+0x2ec>
  4039ec:	7101917f 	cmp	w11, #0x64
  4039f0:	54002720 	b.eq	403ed4 <_nl_load_domain+0xf04>  // b.none
  4039f4:	b94093e1 	ldr	w1, [sp, #144]
  4039f8:	350026a1 	cbnz	w1, 403ecc <_nl_load_domain+0xefc>
  4039fc:	7101bd7f 	cmp	w11, #0x6f
  403a00:	540028e0 	b.eq	403f1c <_nl_load_domain+0xf4c>  // b.none
  403a04:	7101d57f 	cmp	w11, #0x75
  403a08:	54002860 	b.eq	403f14 <_nl_load_domain+0xf44>  // b.none
  403a0c:	7101e17f 	cmp	w11, #0x78
  403a10:	f00002a4 	adrp	x4, 45a000 <ex5_shuffle_pattern+0x7a0>
  403a14:	9106a084 	add	x4, x4, #0x1a8
  403a18:	9a8413c4 	csel	x4, x30, x4, ne  // ne = any
  403a1c:	17fffe28 	b	4032bc <_nl_load_domain+0x2ec>
  403a20:	7101409f 	cmp	w4, #0x50
  403a24:	540036e1 	b.ne	404100 <_nl_load_domain+0x1130>  // b.any
  403a28:	39401430 	ldrb	w16, [x1, #5]
  403a2c:	d2800004 	mov	x4, #0x0                   	// #0
  403a30:	7101521f 	cmp	w16, #0x54
  403a34:	54ffc441 	b.ne	4032bc <_nl_load_domain+0x2ec>  // b.any
  403a38:	39401824 	ldrb	w4, [x1, #6]
  403a3c:	7101489f 	cmp	w4, #0x52
  403a40:	540022a0 	b.eq	403e94 <_nl_load_domain+0xec4>  // b.none
  403a44:	d2800004 	mov	x4, #0x0                   	// #0
  403a48:	17fffe1d 	b	4032bc <_nl_load_domain+0x2ec>
  403a4c:	f94053e1 	ldr	x1, [sp, #160]
  403a50:	aa0003f6 	mov	x22, x0
  403a54:	531f7800 	lsl	w0, w0, #1
  403a58:	b90073e3 	str	w3, [sp, #112]
  403a5c:	f9003fe7 	str	x7, [sp, #120]
  403a60:	8b205020 	add	x0, x1, w0, uxtw #4
  403a64:	940041b3 	bl	414130 <__libc_malloc>
  403a68:	f90053e0 	str	x0, [sp, #160]
  403a6c:	b4ffd5e0 	cbz	x0, 403528 <_nl_load_domain+0x558>
  403a70:	d37c7ec4 	ubfiz	x4, x22, #4, #32
  403a74:	b94073e3 	ldr	w3, [sp, #112]
  403a78:	8b040001 	add	x1, x0, x4
  403a7c:	f9005be1 	str	x1, [sp, #176]
  403a80:	f9406fe1 	ldr	x1, [sp, #216]
  403a84:	8b040404 	add	x4, x0, x4, lsl #1
  403a88:	f9403fe7 	ldr	x7, [sp, #120]
  403a8c:	8b010097 	add	x23, x4, x1
  403a90:	f9001300 	str	x0, [x24, #32]
  403a94:	aa1b03e0 	mov	x0, x27
  403a98:	f9006bfc 	str	x28, [sp, #208]
  403a9c:	aa1703fb 	mov	x27, x23
  403aa0:	f94047fc 	ldr	x28, [sp, #136]
  403aa4:	d2800009 	mov	x9, #0x0                   	// #0
  403aa8:	52825bc8 	mov	w8, #0x12de                	// #4830
  403aac:	aa0003f7 	mov	x23, x0
  403ab0:	b900cbfa 	str	w26, [sp, #200]
  403ab4:	aa0703fa 	mov	x26, x7
  403ab8:	f9006ff8 	str	x24, [sp, #216]
  403abc:	aa0903f8 	mov	x24, x9
  403ac0:	f9007bf9 	str	x25, [sp, #240]
  403ac4:	2a0303f9 	mov	w25, w3
  403ac8:	72b2a088 	movk	w8, #0x9504, lsl #16
  403acc:	b90093ff 	str	wzr, [sp, #144]
  403ad0:	a90e53e4 	stp	x4, x20, [sp, #224]
  403ad4:	52800006 	mov	w6, #0x0                   	// #0
  403ad8:	6b08033f 	cmp	w25, w8
  403adc:	54000580 	b.eq	403b8c <_nl_load_domain+0xbbc>  // b.none
  403ae0:	34001266 	cbz	w6, 403d2c <_nl_load_domain+0xd5c>
  403ae4:	b8787b81 	ldr	w1, [x28, x24, lsl #2]
  403ae8:	5ac00821 	rev	w1, w1
  403aec:	8b0102e1 	add	x1, x23, x1
  403af0:	b9400820 	ldr	w0, [x1, #8]
  403af4:	3100041f 	cmn	w0, #0x1
  403af8:	54000561 	b.ne	403ba4 <_nl_load_domain+0xbd4>  // b.any
  403afc:	34001266 	cbz	w6, 403d48 <_nl_load_domain+0xd78>
  403b00:	f9404be0 	ldr	x0, [sp, #144]
  403b04:	f90047fc 	str	x28, [sp, #136]
  403b08:	aa1b03fc 	mov	x28, x27
  403b0c:	b9007bff 	str	wzr, [sp, #120]
  403b10:	d37c7c14 	ubfiz	x20, x0, #4, #32
  403b14:	f9405be0 	ldr	x0, [sp, #176]
  403b18:	8b140000 	add	x0, x0, x20
  403b1c:	f90063e0 	str	x0, [sp, #192]
  403b20:	f94053e0 	ldr	x0, [sp, #160]
  403b24:	8b140000 	add	x0, x0, x20
  403b28:	f9005fe0 	str	x0, [sp, #184]
  403b2c:	b9407be0 	ldr	w0, [sp, #120]
  403b30:	6b08033f 	cmp	w25, w8
  403b34:	540011e0 	b.eq	403d70 <_nl_load_domain+0xda0>  // b.none
  403b38:	34001820 	cbz	w0, 403e3c <_nl_load_domain+0xe6c>
  403b3c:	f94047e0 	ldr	x0, [sp, #136]
  403b40:	f94063f6 	ldr	x22, [sp, #192]
  403b44:	b8787800 	ldr	w0, [x0, x24, lsl #2]
  403b48:	5ac00801 	rev	w1, w0
  403b4c:	5ac00800 	rev	w0, w0
  403b50:	8b0002e0 	add	x0, x23, x0
  403b54:	b8614af4 	ldr	w20, [x23, w1, uxtw]
  403b58:	5ac00a94 	rev	w20, w20
  403b5c:	8b1402f4 	add	x20, x23, x20
  403b60:	b9400801 	ldr	w1, [x0, #8]
  403b64:	3100043f 	cmn	w1, #0x1
  403b68:	540011c1 	b.ne	403da0 <_nl_load_domain+0xdd0>  // b.any
  403b6c:	b9400400 	ldr	w0, [x0, #4]
  403b70:	5ac00800 	rev	w0, w0
  403b74:	a90052c0 	stp	x0, x20, [x22]
  403b78:	b9407be0 	ldr	w0, [sp, #120]
  403b7c:	350002c0 	cbnz	w0, 403bd4 <_nl_load_domain+0xc04>
  403b80:	52800020 	mov	w0, #0x1                   	// #1
  403b84:	b9007be0 	str	w0, [sp, #120]
  403b88:	17ffffe9 	b	403b2c <_nl_load_domain+0xb5c>
  403b8c:	34000e26 	cbz	w6, 403d50 <_nl_load_domain+0xd80>
  403b90:	b8787b81 	ldr	w1, [x28, x24, lsl #2]
  403b94:	8b0102e1 	add	x1, x23, x1
  403b98:	b9400820 	ldr	w0, [x1, #8]
  403b9c:	3100041f 	cmn	w0, #0x1
  403ba0:	54fffae0 	b.eq	403afc <_nl_load_domain+0xb2c>  // b.none
  403ba4:	91001021 	add	x1, x1, #0x4
  403ba8:	14000005 	b	403bbc <_nl_load_domain+0xbec>
  403bac:	f8605b40 	ldr	x0, [x26, w0, uxtw #3]
  403bb0:	b40001c0 	cbz	x0, 403be8 <_nl_load_domain+0xc18>
  403bb4:	b9400c20 	ldr	w0, [x1, #12]
  403bb8:	91002021 	add	x1, x1, #0x8
  403bbc:	6b08033f 	cmp	w25, w8
  403bc0:	5ac00802 	rev	w2, w0
  403bc4:	1a801040 	csel	w0, w2, w0, ne  // ne = any
  403bc8:	3100041f 	cmn	w0, #0x1
  403bcc:	54ffff01 	b.ne	403bac <_nl_load_domain+0xbdc>  // b.any
  403bd0:	17ffffcb 	b	403afc <_nl_load_domain+0xb2c>
  403bd4:	b94093e0 	ldr	w0, [sp, #144]
  403bd8:	aa1c03fb 	mov	x27, x28
  403bdc:	f94047fc 	ldr	x28, [sp, #136]
  403be0:	11000400 	add	w0, w0, #0x1
  403be4:	b90093e0 	str	w0, [sp, #144]
  403be8:	b9406be0 	ldr	w0, [sp, #104]
  403bec:	91000718 	add	x24, x24, #0x1
  403bf0:	6b18001f 	cmp	w0, w24
  403bf4:	54fff708 	b.hi	403ad4 <_nl_load_domain+0xb04>  // b.pmore
  403bf8:	b94093e2 	ldr	w2, [sp, #144]
  403bfc:	2a1903e3 	mov	w3, w25
  403c00:	b9409fe1 	ldr	w1, [sp, #156]
  403c04:	aa1a03e7 	mov	x7, x26
  403c08:	aa1703fb 	mov	x27, x23
  403c0c:	b940cbfa 	ldr	w26, [sp, #200]
  403c10:	d2800000 	mov	x0, #0x0                   	// #0
  403c14:	a94d63fc 	ldp	x28, x24, [sp, #208]
  403c18:	a94e53e4 	ldp	x4, x20, [sp, #224]
  403c1c:	f9407bf9 	ldr	x25, [sp, #240]
  403c20:	6b02003f 	cmp	w1, w2
  403c24:	54003741 	b.ne	40430c <_nl_load_domain+0x133c>  // b.any
  403c28:	b94063e6 	ldr	w6, [sp, #96]
  403c2c:	52825bc8 	mov	w8, #0x12de                	// #4830
  403c30:	f94043e5 	ldr	x5, [sp, #128]
  403c34:	72b2a088 	movk	w8, #0x9504, lsl #16
  403c38:	b86078a1 	ldr	w1, [x5, x0, lsl #2]
  403c3c:	6b08007f 	cmp	w3, w8
  403c40:	5ac00822 	rev	w2, w1
  403c44:	1a811041 	csel	w1, w2, w1, ne  // ne = any
  403c48:	b8207881 	str	w1, [x4, x0, lsl #2]
  403c4c:	91000400 	add	x0, x0, #0x1
  403c50:	6b0000df 	cmp	w6, w0
  403c54:	54ffff28 	b.hi	403c38 <_nl_load_domain+0xc68>  // b.pmore
  403c58:	f94053e0 	ldr	x0, [sp, #160]
  403c5c:	52800016 	mov	w22, #0x0                   	// #0
  403c60:	a90653e7 	stp	x7, x20, [sp, #96]
  403c64:	91002017 	add	x23, x0, #0x8
  403c68:	b9409ff4 	ldr	w20, [sp, #156]
  403c6c:	f9003bf9 	str	x25, [sp, #112]
  403c70:	aa1703f9 	mov	x25, x23
  403c74:	2a1603f7 	mov	w23, w22
  403c78:	aa1803f6 	mov	x22, x24
  403c7c:	aa0403f8 	mov	x24, x4
  403c80:	f9400320 	ldr	x0, [x25]
  403c84:	9400080b 	bl	405cb0 <__hash_string>
  403c88:	b9405ac4 	ldr	w4, [x22, #88]
  403c8c:	51000882 	sub	w2, w4, #0x2
  403c90:	1ac40801 	udiv	w1, w0, w4
  403c94:	1ac20803 	udiv	w3, w0, w2
  403c98:	1b048021 	msub	w1, w1, w4, w0
  403c9c:	1b028063 	msub	w3, w3, w2, w0
  403ca0:	8b214b02 	add	x2, x24, w1, uxtw #2
  403ca4:	b8615b00 	ldr	w0, [x24, w1, uxtw #2]
  403ca8:	11000463 	add	w3, w3, #0x1
  403cac:	4b030085 	sub	w5, w4, w3
  403cb0:	4b040064 	sub	w4, w3, w4
  403cb4:	34000120 	cbz	w0, 403cd8 <_nl_load_domain+0xd08>
  403cb8:	0b040022 	add	w2, w1, w4
  403cbc:	6b05003f 	cmp	w1, w5
  403cc0:	0b030021 	add	w1, w1, w3
  403cc4:	1a823020 	csel	w0, w1, w2, cc  // cc = lo, ul, last
  403cc8:	1a823021 	csel	w1, w1, w2, cc  // cc = lo, ul, last
  403ccc:	8b000b02 	add	x2, x24, x0, lsl #2
  403cd0:	b8607b00 	ldr	w0, [x24, x0, lsl #2]
  403cd4:	35ffff20 	cbnz	w0, 403cb8 <_nl_load_domain+0xce8>
  403cd8:	b9402ac0 	ldr	w0, [x22, #40]
  403cdc:	91004339 	add	x25, x25, #0x10
  403ce0:	11000400 	add	w0, w0, #0x1
  403ce4:	0b170000 	add	w0, w0, w23
  403ce8:	110006f7 	add	w23, w23, #0x1
  403cec:	b9000040 	str	w0, [x2]
  403cf0:	6b17029f 	cmp	w20, w23
  403cf4:	54fffc61 	b.ne	403c80 <_nl_load_domain+0xcb0>  // b.any
  403cf8:	b9409fe0 	ldr	w0, [sp, #156]
  403cfc:	aa1803e4 	mov	x4, x24
  403d00:	b90042c0 	str	w0, [x22, #64]
  403d04:	aa1603f8 	mov	x24, x22
  403d08:	f94053e0 	ldr	x0, [sp, #160]
  403d0c:	f90026c0 	str	x0, [x22, #72]
  403d10:	f9405be0 	ldr	x0, [sp, #176]
  403d14:	f9002ac0 	str	x0, [x22, #80]
  403d18:	f90032c4 	str	x4, [x22, #96]
  403d1c:	b9006adf 	str	wzr, [x22, #104]
  403d20:	a94653e7 	ldp	x7, x20, [sp, #96]
  403d24:	f9403bf9 	ldr	x25, [sp, #112]
  403d28:	17fffdae 	b	4033e0 <_nl_load_domain+0x410>
  403d2c:	f94057e0 	ldr	x0, [sp, #168]
  403d30:	b8787801 	ldr	w1, [x0, x24, lsl #2]
  403d34:	5ac00821 	rev	w1, w1
  403d38:	8b0102e1 	add	x1, x23, x1
  403d3c:	b9400820 	ldr	w0, [x1, #8]
  403d40:	3100041f 	cmn	w0, #0x1
  403d44:	54fff301 	b.ne	403ba4 <_nl_load_domain+0xbd4>  // b.any
  403d48:	52800026 	mov	w6, #0x1                   	// #1
  403d4c:	17ffff63 	b	403ad8 <_nl_load_domain+0xb08>
  403d50:	f94057e0 	ldr	x0, [sp, #168]
  403d54:	b8787801 	ldr	w1, [x0, x24, lsl #2]
  403d58:	8b0102e1 	add	x1, x23, x1
  403d5c:	b9400820 	ldr	w0, [x1, #8]
  403d60:	3100041f 	cmn	w0, #0x1
  403d64:	54fff201 	b.ne	403ba4 <_nl_load_domain+0xbd4>  // b.any
  403d68:	52800026 	mov	w6, #0x1                   	// #1
  403d6c:	17ffff5b 	b	403ad8 <_nl_load_domain+0xb08>
  403d70:	34000780 	cbz	w0, 403e60 <_nl_load_domain+0xe90>
  403d74:	f94047e0 	ldr	x0, [sp, #136]
  403d78:	f94063f6 	ldr	x22, [sp, #192]
  403d7c:	b8787801 	ldr	w1, [x0, x24, lsl #2]
  403d80:	8b0102e0 	add	x0, x23, x1
  403d84:	b8616af4 	ldr	w20, [x23, x1]
  403d88:	8b1402f4 	add	x20, x23, x20
  403d8c:	b9400801 	ldr	w1, [x0, #8]
  403d90:	3100043f 	cmn	w1, #0x1
  403d94:	54000061 	b.ne	403da0 <_nl_load_domain+0xdd0>  // b.any
  403d98:	b9400400 	ldr	w0, [x0, #4]
  403d9c:	17ffff76 	b	403b74 <_nl_load_domain+0xba4>
  403da0:	9100101b 	add	x27, x0, #0x4
  403da4:	f90006dc 	str	x28, [x22, #8]
  403da8:	f9007ff6 	str	x22, [sp, #248]
  403dac:	aa1c03f6 	mov	x22, x28
  403db0:	29407360 	ldp	w0, w28, [x27]
  403db4:	6b08033f 	cmp	w25, w8
  403db8:	54000060 	b.eq	403dc4 <_nl_load_domain+0xdf4>  // b.none
  403dbc:	5ac00800 	rev	w0, w0
  403dc0:	5ac00b9c 	rev	w28, w28
  403dc4:	350001e0 	cbnz	w0, 403e00 <_nl_load_domain+0xe30>
  403dc8:	3100079f 	cmn	w28, #0x1
  403dcc:	540002c0 	b.eq	403e24 <_nl_load_domain+0xe54>  // b.none
  403dd0:	f87c5b5c 	ldr	x28, [x26, w28, uxtw #3]
  403dd4:	b90073e8 	str	w8, [sp, #112]
  403dd8:	9100237b 	add	x27, x27, #0x8
  403ddc:	aa1c03e0 	mov	x0, x28
  403de0:	97fff148 	bl	400300 <.plt+0x60>
  403de4:	aa0003e2 	mov	x2, x0
  403de8:	aa1c03e1 	mov	x1, x28
  403dec:	aa1603e0 	mov	x0, x22
  403df0:	8b0202d6 	add	x22, x22, x2
  403df4:	97fff12f 	bl	4002b0 <.plt+0x10>
  403df8:	b94073e8 	ldr	w8, [sp, #112]
  403dfc:	17ffffed 	b	403db0 <_nl_load_domain+0xde0>
  403e00:	2a0003e2 	mov	w2, w0
  403e04:	aa1403e1 	mov	x1, x20
  403e08:	aa1603e0 	mov	x0, x22
  403e0c:	8b020294 	add	x20, x20, x2
  403e10:	8b0202d6 	add	x22, x22, x2
  403e14:	b90073e8 	str	w8, [sp, #112]
  403e18:	97fff126 	bl	4002b0 <.plt+0x10>
  403e1c:	b94073e8 	ldr	w8, [sp, #112]
  403e20:	17ffffea 	b	403dc8 <_nl_load_domain+0xdf8>
  403e24:	aa1603fc 	mov	x28, x22
  403e28:	f9407ff6 	ldr	x22, [sp, #248]
  403e2c:	f94006c0 	ldr	x0, [x22, #8]
  403e30:	cb000380 	sub	x0, x28, x0
  403e34:	f90002c0 	str	x0, [x22]
  403e38:	17ffff50 	b	403b78 <_nl_load_domain+0xba8>
  403e3c:	f94057e0 	ldr	x0, [sp, #168]
  403e40:	f9405ff6 	ldr	x22, [sp, #184]
  403e44:	b8787801 	ldr	w1, [x0, x24, lsl #2]
  403e48:	5ac00821 	rev	w1, w1
  403e4c:	8b0102e0 	add	x0, x23, x1
  403e50:	b8616af4 	ldr	w20, [x23, x1]
  403e54:	5ac00a94 	rev	w20, w20
  403e58:	8b1402f4 	add	x20, x23, x20
  403e5c:	17ffff41 	b	403b60 <_nl_load_domain+0xb90>
  403e60:	f94057e0 	ldr	x0, [sp, #168]
  403e64:	f9405ff6 	ldr	x22, [sp, #184]
  403e68:	b8787801 	ldr	w1, [x0, x24, lsl #2]
  403e6c:	8b0102e0 	add	x0, x23, x1
  403e70:	b8616af4 	ldr	w20, [x23, x1]
  403e74:	8b1402f4 	add	x20, x23, x20
  403e78:	17ffffc5 	b	403d8c <_nl_load_domain+0xdbc>
  403e7c:	a90573fb 	stp	x27, x28, [sp, #80]
  403e80:	9400638c 	bl	41ccb0 <__stack_chk_fail>
  403e84:	aa0603e4 	mov	x4, x6
  403e88:	17fffd0d 	b	4032bc <_nl_load_domain+0x2ec>
  403e8c:	aa1203e4 	mov	x4, x18
  403e90:	17fffd0b 	b	4032bc <_nl_load_domain+0x2ec>
  403e94:	39401c21 	ldrb	w1, [x1, #7]
  403e98:	35000221 	cbnz	w1, 403edc <_nl_load_domain+0xf0c>
  403e9c:	7101917f 	cmp	w11, #0x64
  403ea0:	540014c0 	b.eq	404138 <_nl_load_domain+0x1168>  // b.none
  403ea4:	b94093e1 	ldr	w1, [sp, #144]
  403ea8:	35001501 	cbnz	w1, 404148 <_nl_load_domain+0x1178>
  403eac:	7101bd7f 	cmp	w11, #0x6f
  403eb0:	54001480 	b.eq	404140 <_nl_load_domain+0x1170>  // b.none
  403eb4:	7101d57f 	cmp	w11, #0x75
  403eb8:	540013c0 	b.eq	404130 <_nl_load_domain+0x1160>  // b.none
  403ebc:	f9403be1 	ldr	x1, [sp, #112]
  403ec0:	7101e17f 	cmp	w11, #0x78
  403ec4:	9a971024 	csel	x4, x1, x23, ne  // ne = any
  403ec8:	17fffcfd 	b	4032bc <_nl_load_domain+0x2ec>
  403ecc:	aa1203e4 	mov	x4, x18
  403ed0:	17fffcfb 	b	4032bc <_nl_load_domain+0x2ec>
  403ed4:	f94047e4 	ldr	x4, [sp, #136]
  403ed8:	17fffcf9 	b	4032bc <_nl_load_domain+0x2ec>
  403edc:	d2800004 	mov	x4, #0x0                   	// #0
  403ee0:	17fffcf7 	b	4032bc <_nl_load_domain+0x2ec>
  403ee4:	aa0f03e4 	mov	x4, x15
  403ee8:	17fffcf5 	b	4032bc <_nl_load_domain+0x2ec>
  403eec:	f94047e4 	ldr	x4, [sp, #136]
  403ef0:	17fffcf3 	b	4032bc <_nl_load_domain+0x2ec>
  403ef4:	aa1203e4 	mov	x4, x18
  403ef8:	17fffcf1 	b	4032bc <_nl_load_domain+0x2ec>
  403efc:	aa0503e4 	mov	x4, x5
  403f00:	17fffcef 	b	4032bc <_nl_load_domain+0x2ec>
  403f04:	d2800004 	mov	x4, #0x0                   	// #0
  403f08:	17fffced 	b	4032bc <_nl_load_domain+0x2ec>
  403f0c:	aa0603e4 	mov	x4, x6
  403f10:	17fffceb 	b	4032bc <_nl_load_domain+0x2ec>
  403f14:	aa0503e4 	mov	x4, x5
  403f18:	17fffce9 	b	4032bc <_nl_load_domain+0x2ec>
  403f1c:	aa0603e4 	mov	x4, x6
  403f20:	17fffce7 	b	4032bc <_nl_load_domain+0x2ec>
  403f24:	aa0c03e4 	mov	x4, x12
  403f28:	17fffce5 	b	4032bc <_nl_load_domain+0x2ec>
  403f2c:	aa0d03e4 	mov	x4, x13
  403f30:	17fffce3 	b	4032bc <_nl_load_domain+0x2ec>
  403f34:	39402c21 	ldrb	w1, [x1, #11]
  403f38:	350006e1 	cbnz	w1, 404014 <_nl_load_domain+0x1044>
  403f3c:	7101917f 	cmp	w11, #0x64
  403f40:	54000660 	b.eq	40400c <_nl_load_domain+0x103c>  // b.none
  403f44:	b94093e1 	ldr	w1, [sp, #144]
  403f48:	350005e1 	cbnz	w1, 404004 <_nl_load_domain+0x1034>
  403f4c:	7101bd7f 	cmp	w11, #0x6f
  403f50:	54000560 	b.eq	403ffc <_nl_load_domain+0x102c>  // b.none
  403f54:	7101d57f 	cmp	w11, #0x75
  403f58:	540001a0 	b.eq	403f8c <_nl_load_domain+0xfbc>  // b.none
  403f5c:	7101e17f 	cmp	w11, #0x78
  403f60:	f00002a4 	adrp	x4, 45a000 <ex5_shuffle_pattern+0x7a0>
  403f64:	9106a084 	add	x4, x4, #0x1a8
  403f68:	9a8413c4 	csel	x4, x30, x4, ne  // ne = any
  403f6c:	17fffcd4 	b	4032bc <_nl_load_domain+0x2ec>
  403f70:	7100d89f 	cmp	w4, #0x36
  403f74:	540002c1 	b.ne	403fcc <_nl_load_domain+0xffc>  // b.any
  403f78:	39402824 	ldrb	w4, [x1, #10]
  403f7c:	7100d09f 	cmp	w4, #0x34
  403f80:	540000a0 	b.eq	403f94 <_nl_load_domain+0xfc4>  // b.none
  403f84:	d2800004 	mov	x4, #0x0                   	// #0
  403f88:	17fffccd 	b	4032bc <_nl_load_domain+0x2ec>
  403f8c:	aa0503e4 	mov	x4, x5
  403f90:	17fffccb 	b	4032bc <_nl_load_domain+0x2ec>
  403f94:	39402c21 	ldrb	w1, [x1, #11]
  403f98:	350002e1 	cbnz	w1, 403ff4 <_nl_load_domain+0x1024>
  403f9c:	7101917f 	cmp	w11, #0x64
  403fa0:	54000260 	b.eq	403fec <_nl_load_domain+0x101c>  // b.none
  403fa4:	b94093e1 	ldr	w1, [sp, #144]
  403fa8:	350001e1 	cbnz	w1, 403fe4 <_nl_load_domain+0x1014>
  403fac:	7101bd7f 	cmp	w11, #0x6f
  403fb0:	54000160 	b.eq	403fdc <_nl_load_domain+0x100c>  // b.none
  403fb4:	7101d57f 	cmp	w11, #0x75
  403fb8:	540000e0 	b.eq	403fd4 <_nl_load_domain+0x1004>  // b.none
  403fbc:	f9403be1 	ldr	x1, [sp, #112]
  403fc0:	7101e17f 	cmp	w11, #0x78
  403fc4:	9a8102e4 	csel	x4, x23, x1, eq  // eq = none
  403fc8:	17fffcbd 	b	4032bc <_nl_load_domain+0x2ec>
  403fcc:	d2800004 	mov	x4, #0x0                   	// #0
  403fd0:	17fffcbb 	b	4032bc <_nl_load_domain+0x2ec>
  403fd4:	aa0c03e4 	mov	x4, x12
  403fd8:	17fffcb9 	b	4032bc <_nl_load_domain+0x2ec>
  403fdc:	aa0d03e4 	mov	x4, x13
  403fe0:	17fffcb7 	b	4032bc <_nl_load_domain+0x2ec>
  403fe4:	aa0e03e4 	mov	x4, x14
  403fe8:	17fffcb5 	b	4032bc <_nl_load_domain+0x2ec>
  403fec:	aa0f03e4 	mov	x4, x15
  403ff0:	17fffcb3 	b	4032bc <_nl_load_domain+0x2ec>
  403ff4:	d2800004 	mov	x4, #0x0                   	// #0
  403ff8:	17fffcb1 	b	4032bc <_nl_load_domain+0x2ec>
  403ffc:	aa0603e4 	mov	x4, x6
  404000:	17fffcaf 	b	4032bc <_nl_load_domain+0x2ec>
  404004:	aa1203e4 	mov	x4, x18
  404008:	17fffcad 	b	4032bc <_nl_load_domain+0x2ec>
  40400c:	f94047e4 	ldr	x4, [sp, #136]
  404010:	17fffcab 	b	4032bc <_nl_load_domain+0x2ec>
  404014:	d2800004 	mov	x4, #0x0                   	// #0
  404018:	17fffca9 	b	4032bc <_nl_load_domain+0x2ec>
  40401c:	39402824 	ldrb	w4, [x1, #10]
  404020:	7100d89f 	cmp	w4, #0x36
  404024:	54000240 	b.eq	40406c <_nl_load_domain+0x109c>  // b.none
  404028:	d2800004 	mov	x4, #0x0                   	// #0
  40402c:	17fffca4 	b	4032bc <_nl_load_domain+0x2ec>
  404030:	39402821 	ldrb	w1, [x1, #10]
  404034:	350005e1 	cbnz	w1, 4040f0 <_nl_load_domain+0x1120>
  404038:	7101917f 	cmp	w11, #0x64
  40403c:	54000560 	b.eq	4040e8 <_nl_load_domain+0x1118>  // b.none
  404040:	b94093e1 	ldr	w1, [sp, #144]
  404044:	350004e1 	cbnz	w1, 4040e0 <_nl_load_domain+0x1110>
  404048:	7101bd7f 	cmp	w11, #0x6f
  40404c:	54000460 	b.eq	4040d8 <_nl_load_domain+0x1108>  // b.none
  404050:	7101d57f 	cmp	w11, #0x75
  404054:	540002a0 	b.eq	4040a8 <_nl_load_domain+0x10d8>  // b.none
  404058:	7101e17f 	cmp	w11, #0x78
  40405c:	d00002a4 	adrp	x4, 45a000 <ex5_shuffle_pattern+0x7a0>
  404060:	9106a084 	add	x4, x4, #0x1a8
  404064:	9a8413c4 	csel	x4, x30, x4, ne  // ne = any
  404068:	17fffc95 	b	4032bc <_nl_load_domain+0x2ec>
  40406c:	39402c21 	ldrb	w1, [x1, #11]
  404070:	35000301 	cbnz	w1, 4040d0 <_nl_load_domain+0x1100>
  404074:	7101917f 	cmp	w11, #0x64
  404078:	54000280 	b.eq	4040c8 <_nl_load_domain+0x10f8>  // b.none
  40407c:	b94093e1 	ldr	w1, [sp, #144]
  404080:	35000201 	cbnz	w1, 4040c0 <_nl_load_domain+0x10f0>
  404084:	7101bd7f 	cmp	w11, #0x6f
  404088:	54000180 	b.eq	4040b8 <_nl_load_domain+0x10e8>  // b.none
  40408c:	7101d57f 	cmp	w11, #0x75
  404090:	54000100 	b.eq	4040b0 <_nl_load_domain+0x10e0>  // b.none
  404094:	7101e17f 	cmp	w11, #0x78
  404098:	d00002a4 	adrp	x4, 45a000 <ex5_shuffle_pattern+0x7a0>
  40409c:	9106a084 	add	x4, x4, #0x1a8
  4040a0:	9a8413c4 	csel	x4, x30, x4, ne  // ne = any
  4040a4:	17fffc86 	b	4032bc <_nl_load_domain+0x2ec>
  4040a8:	aa0503e4 	mov	x4, x5
  4040ac:	17fffc84 	b	4032bc <_nl_load_domain+0x2ec>
  4040b0:	aa0503e4 	mov	x4, x5
  4040b4:	17fffc82 	b	4032bc <_nl_load_domain+0x2ec>
  4040b8:	aa0603e4 	mov	x4, x6
  4040bc:	17fffc80 	b	4032bc <_nl_load_domain+0x2ec>
  4040c0:	aa1203e4 	mov	x4, x18
  4040c4:	17fffc7e 	b	4032bc <_nl_load_domain+0x2ec>
  4040c8:	f94047e4 	ldr	x4, [sp, #136]
  4040cc:	17fffc7c 	b	4032bc <_nl_load_domain+0x2ec>
  4040d0:	d2800004 	mov	x4, #0x0                   	// #0
  4040d4:	17fffc7a 	b	4032bc <_nl_load_domain+0x2ec>
  4040d8:	aa0603e4 	mov	x4, x6
  4040dc:	17fffc78 	b	4032bc <_nl_load_domain+0x2ec>
  4040e0:	aa1203e4 	mov	x4, x18
  4040e4:	17fffc76 	b	4032bc <_nl_load_domain+0x2ec>
  4040e8:	f94047e4 	ldr	x4, [sp, #136]
  4040ec:	17fffc74 	b	4032bc <_nl_load_domain+0x2ec>
  4040f0:	d2800004 	mov	x4, #0x0                   	// #0
  4040f4:	17fffc72 	b	4032bc <_nl_load_domain+0x2ec>
  4040f8:	aa0e03e4 	mov	x4, x14
  4040fc:	17fffc70 	b	4032bc <_nl_load_domain+0x2ec>
  404100:	d2800004 	mov	x4, #0x0                   	// #0
  404104:	17fffc6e 	b	4032bc <_nl_load_domain+0x2ec>
  404108:	aa0e03e4 	mov	x4, x14
  40410c:	17fffc6c 	b	4032bc <_nl_load_domain+0x2ec>
  404110:	aa0f03e4 	mov	x4, x15
  404114:	17fffc6a 	b	4032bc <_nl_load_domain+0x2ec>
  404118:	aa0c03e4 	mov	x4, x12
  40411c:	17fffc68 	b	4032bc <_nl_load_domain+0x2ec>
  404120:	aa0d03e4 	mov	x4, x13
  404124:	17fffc66 	b	4032bc <_nl_load_domain+0x2ec>
  404128:	aa0503e4 	mov	x4, x5
  40412c:	17fffc64 	b	4032bc <_nl_load_domain+0x2ec>
  404130:	aa0c03e4 	mov	x4, x12
  404134:	17fffc62 	b	4032bc <_nl_load_domain+0x2ec>
  404138:	aa0f03e4 	mov	x4, x15
  40413c:	17fffc60 	b	4032bc <_nl_load_domain+0x2ec>
  404140:	aa0d03e4 	mov	x4, x13
  404144:	17fffc5e 	b	4032bc <_nl_load_domain+0x2ec>
  404148:	aa0e03e4 	mov	x4, x14
  40414c:	17fffc5c 	b	4032bc <_nl_load_domain+0x2ec>
  404150:	39402821 	ldrb	w1, [x1, #10]
  404154:	35000a01 	cbnz	w1, 404294 <_nl_load_domain+0x12c4>
  404158:	7101917f 	cmp	w11, #0x64
  40415c:	54000980 	b.eq	40428c <_nl_load_domain+0x12bc>  // b.none
  404160:	b94093e1 	ldr	w1, [sp, #144]
  404164:	35000901 	cbnz	w1, 404284 <_nl_load_domain+0x12b4>
  404168:	7101bd7f 	cmp	w11, #0x6f
  40416c:	54000880 	b.eq	40427c <_nl_load_domain+0x12ac>  // b.none
  404170:	7101d57f 	cmp	w11, #0x75
  404174:	54000940 	b.eq	40429c <_nl_load_domain+0x12cc>  // b.none
  404178:	f9403be1 	ldr	x1, [sp, #112]
  40417c:	7101e17f 	cmp	w11, #0x78
  404180:	9a971024 	csel	x4, x1, x23, ne  // ne = any
  404184:	17fffc4e 	b	4032bc <_nl_load_domain+0x2ec>
  404188:	7100d89f 	cmp	w4, #0x36
  40418c:	54000a81 	b.ne	4042dc <_nl_load_domain+0x130c>  // b.any
  404190:	39402424 	ldrb	w4, [x1, #9]
  404194:	7100d09f 	cmp	w4, #0x34
  404198:	54000860 	b.eq	4042a4 <_nl_load_domain+0x12d4>  // b.none
  40419c:	d2800004 	mov	x4, #0x0                   	// #0
  4041a0:	17fffc47 	b	4032bc <_nl_load_domain+0x2ec>
  4041a4:	39402424 	ldrb	w4, [x1, #9]
  4041a8:	7100d89f 	cmp	w4, #0x36
  4041ac:	54000240 	b.eq	4041f4 <_nl_load_domain+0x1224>  // b.none
  4041b0:	d2800004 	mov	x4, #0x0                   	// #0
  4041b4:	17fffc42 	b	4032bc <_nl_load_domain+0x2ec>
  4041b8:	39402421 	ldrb	w1, [x1, #9]
  4041bc:	350005c1 	cbnz	w1, 404274 <_nl_load_domain+0x12a4>
  4041c0:	7101917f 	cmp	w11, #0x64
  4041c4:	54000540 	b.eq	40426c <_nl_load_domain+0x129c>  // b.none
  4041c8:	b94093e1 	ldr	w1, [sp, #144]
  4041cc:	350004c1 	cbnz	w1, 404264 <_nl_load_domain+0x1294>
  4041d0:	7101bd7f 	cmp	w11, #0x6f
  4041d4:	54000440 	b.eq	40425c <_nl_load_domain+0x128c>  // b.none
  4041d8:	7101d57f 	cmp	w11, #0x75
  4041dc:	54000280 	b.eq	40422c <_nl_load_domain+0x125c>  // b.none
  4041e0:	7101e17f 	cmp	w11, #0x78
  4041e4:	d00002a4 	adrp	x4, 45a000 <ex5_shuffle_pattern+0x7a0>
  4041e8:	9106a084 	add	x4, x4, #0x1a8
  4041ec:	9a9e0084 	csel	x4, x4, x30, eq  // eq = none
  4041f0:	17fffc33 	b	4032bc <_nl_load_domain+0x2ec>
  4041f4:	39402821 	ldrb	w1, [x1, #10]
  4041f8:	350002e1 	cbnz	w1, 404254 <_nl_load_domain+0x1284>
  4041fc:	7101917f 	cmp	w11, #0x64
  404200:	54000260 	b.eq	40424c <_nl_load_domain+0x127c>  // b.none
  404204:	b94093e1 	ldr	w1, [sp, #144]
  404208:	350001e1 	cbnz	w1, 404244 <_nl_load_domain+0x1274>
  40420c:	7101bd7f 	cmp	w11, #0x6f
  404210:	54000160 	b.eq	40423c <_nl_load_domain+0x126c>  // b.none
  404214:	7101d57f 	cmp	w11, #0x75
  404218:	540000e0 	b.eq	404234 <_nl_load_domain+0x1264>  // b.none
  40421c:	f9403be1 	ldr	x1, [sp, #112]
  404220:	7101e17f 	cmp	w11, #0x78
  404224:	9a971024 	csel	x4, x1, x23, ne  // ne = any
  404228:	17fffc25 	b	4032bc <_nl_load_domain+0x2ec>
  40422c:	aa0503e4 	mov	x4, x5
  404230:	17fffc23 	b	4032bc <_nl_load_domain+0x2ec>
  404234:	aa0c03e4 	mov	x4, x12
  404238:	17fffc21 	b	4032bc <_nl_load_domain+0x2ec>
  40423c:	aa0d03e4 	mov	x4, x13
  404240:	17fffc1f 	b	4032bc <_nl_load_domain+0x2ec>
  404244:	aa0e03e4 	mov	x4, x14
  404248:	17fffc1d 	b	4032bc <_nl_load_domain+0x2ec>
  40424c:	aa0f03e4 	mov	x4, x15
  404250:	17fffc1b 	b	4032bc <_nl_load_domain+0x2ec>
  404254:	d2800004 	mov	x4, #0x0                   	// #0
  404258:	17fffc19 	b	4032bc <_nl_load_domain+0x2ec>
  40425c:	aa0603e4 	mov	x4, x6
  404260:	17fffc17 	b	4032bc <_nl_load_domain+0x2ec>
  404264:	aa1203e4 	mov	x4, x18
  404268:	17fffc15 	b	4032bc <_nl_load_domain+0x2ec>
  40426c:	f94047e4 	ldr	x4, [sp, #136]
  404270:	17fffc13 	b	4032bc <_nl_load_domain+0x2ec>
  404274:	d2800004 	mov	x4, #0x0                   	// #0
  404278:	17fffc11 	b	4032bc <_nl_load_domain+0x2ec>
  40427c:	aa0d03e4 	mov	x4, x13
  404280:	17fffc0f 	b	4032bc <_nl_load_domain+0x2ec>
  404284:	aa0e03e4 	mov	x4, x14
  404288:	17fffc0d 	b	4032bc <_nl_load_domain+0x2ec>
  40428c:	aa0f03e4 	mov	x4, x15
  404290:	17fffc0b 	b	4032bc <_nl_load_domain+0x2ec>
  404294:	d2800004 	mov	x4, #0x0                   	// #0
  404298:	17fffc09 	b	4032bc <_nl_load_domain+0x2ec>
  40429c:	aa0c03e4 	mov	x4, x12
  4042a0:	17fffc07 	b	4032bc <_nl_load_domain+0x2ec>
  4042a4:	39402821 	ldrb	w1, [x1, #10]
  4042a8:	350002e1 	cbnz	w1, 404304 <_nl_load_domain+0x1334>
  4042ac:	7101917f 	cmp	w11, #0x64
  4042b0:	54000260 	b.eq	4042fc <_nl_load_domain+0x132c>  // b.none
  4042b4:	b94093e1 	ldr	w1, [sp, #144]
  4042b8:	350001e1 	cbnz	w1, 4042f4 <_nl_load_domain+0x1324>
  4042bc:	7101bd7f 	cmp	w11, #0x6f
  4042c0:	54000160 	b.eq	4042ec <_nl_load_domain+0x131c>  // b.none
  4042c4:	7101d57f 	cmp	w11, #0x75
  4042c8:	540000e0 	b.eq	4042e4 <_nl_load_domain+0x1314>  // b.none
  4042cc:	f9403be1 	ldr	x1, [sp, #112]
  4042d0:	7101e17f 	cmp	w11, #0x78
  4042d4:	9a971024 	csel	x4, x1, x23, ne  // ne = any
  4042d8:	17fffbf9 	b	4032bc <_nl_load_domain+0x2ec>
  4042dc:	d2800004 	mov	x4, #0x0                   	// #0
  4042e0:	17fffbf7 	b	4032bc <_nl_load_domain+0x2ec>
  4042e4:	aa0c03e4 	mov	x4, x12
  4042e8:	17fffbf5 	b	4032bc <_nl_load_domain+0x2ec>
  4042ec:	aa0d03e4 	mov	x4, x13
  4042f0:	17fffbf3 	b	4032bc <_nl_load_domain+0x2ec>
  4042f4:	aa0e03e4 	mov	x4, x14
  4042f8:	17fffbf1 	b	4032bc <_nl_load_domain+0x2ec>
  4042fc:	aa0f03e4 	mov	x4, x15
  404300:	17fffbef 	b	4032bc <_nl_load_domain+0x2ec>
  404304:	d2800004 	mov	x4, #0x0                   	// #0
  404308:	17fffbed 	b	4032bc <_nl_load_domain+0x2ec>
  40430c:	97fff00d 	bl	400340 <abort>

0000000000404310 <alias_compare>:
  404310:	f9400000 	ldr	x0, [x0]
  404314:	f0000462 	adrp	x2, 493000 <tunable_list+0x528>
  404318:	f9400021 	ldr	x1, [x1]
  40431c:	91280042 	add	x2, x2, #0xa00
  404320:	14004b3c 	b	417010 <__strcasecmp_l>

0000000000404324 <read_alias_file>:
  404324:	d10983ff 	sub	sp, sp, #0x260
  404328:	a9017bfd 	stp	x29, x30, [sp, #16]
  40432c:	910043fd 	add	x29, sp, #0x10
  404330:	a90463f7 	stp	x23, x24, [sp, #64]
  404334:	f0000478 	adrp	x24, 493000 <tunable_list+0x528>
  404338:	f945fb02 	ldr	x2, [x24, #3056]
  40433c:	a90253f3 	stp	x19, x20, [sp, #32]
  404340:	93407c34 	sxtw	x20, w1
  404344:	91007683 	add	x3, x20, #0x1d
  404348:	a9035bf5 	stp	x21, x22, [sp, #48]
  40434c:	9270bc64 	and	x4, x3, #0xffffffffffff0000
  404350:	a9056bf9 	stp	x25, x26, [sp, #80]
  404354:	cb2463e4 	sub	x4, sp, x4
  404358:	aa1403f3 	mov	x19, x20
  40435c:	a90673fb 	stp	x27, x28, [sp, #96]
  404360:	927cec63 	and	x3, x3, #0xfffffffffffffff0
  404364:	f9400041 	ldr	x1, [x2]
  404368:	f90127a1 	str	x1, [x29, #584]
  40436c:	d2800001 	mov	x1, #0x0                   	// #0
  404370:	eb2463ff 	cmp	sp, x4
  404374:	540000a0 	b.eq	404388 <read_alias_file+0x64>  // b.none
  404378:	d14043ff 	sub	sp, sp, #0x10, lsl #12
  40437c:	f90203ff 	str	xzr, [sp, #1024]
  404380:	eb2463ff 	cmp	sp, x4
  404384:	54ffffa1 	b.ne	404378 <read_alias_file+0x54>  // b.any
  404388:	92403c63 	and	x3, x3, #0xffff
  40438c:	cb2363ff 	sub	sp, sp, x3
  404390:	f90003ff 	str	xzr, [sp]
  404394:	f110007f 	cmp	x3, #0x400
  404398:	54001ba2 	b.cs	40470c <read_alias_file+0x3e8>  // b.hs, b.nlast
  40439c:	910043e4 	add	x4, sp, #0x10
  4043a0:	aa0003e1 	mov	x1, x0
  4043a4:	aa1403e2 	mov	x2, x20
  4043a8:	aa0403e0 	mov	x0, x4
  4043ac:	97ffefc1 	bl	4002b0 <.plt+0x10>
  4043b0:	8b140014 	add	x20, x0, x20
  4043b4:	d00002a2 	adrp	x2, 45a000 <ex5_shuffle_pattern+0x7a0>
  4043b8:	9107c042 	add	x2, x2, #0x1f0
  4043bc:	d00002a1 	adrp	x1, 45a000 <ex5_shuffle_pattern+0x7a0>
  4043c0:	9107a021 	add	x1, x1, #0x1e8
  4043c4:	f9400044 	ldr	x4, [x2]
  4043c8:	f833c804 	str	x4, [x0, w19, sxtw]
  4043cc:	f8406042 	ldur	x2, [x2, #6]
  4043d0:	f8006282 	stur	x2, [x20, #6]
  4043d4:	94000e03 	bl	407be0 <_IO_new_fopen>
  4043d8:	aa0003f5 	mov	x21, x0
  4043dc:	b40019c0 	cbz	x0, 404714 <read_alias_file+0x3f0>
  4043e0:	b9400001 	ldr	w1, [x0]
  4043e4:	9102e3b4 	add	x20, x29, #0xb8
  4043e8:	d2800019 	mov	x25, #0x0                   	// #0
  4043ec:	32110022 	orr	w2, w1, #0x8000
  4043f0:	b9000002 	str	w2, [x0]
  4043f4:	37201b01 	tbnz	w1, #4, 404754 <read_alias_file+0x430>
  4043f8:	f0000460 	adrp	x0, 493000 <tunable_list+0x528>
  4043fc:	f9476000 	ldr	x0, [x0, #3776]
  404400:	d53bd056 	mrs	x22, tpidr_el0
  404404:	d0000497 	adrp	x23, 496000 <_IO_strn_jumps+0x88>
  404408:	912742f7 	add	x23, x23, #0x9d0
  40440c:	8b0002d6 	add	x22, x22, x0
  404410:	aa1503e2 	mov	x2, x21
  404414:	aa1403e0 	mov	x0, x20
  404418:	52803201 	mov	w1, #0x190                 	// #400
  40441c:	9400175d 	bl	40a190 <__fgets_unlocked>
  404420:	b40002c0 	cbz	x0, 404478 <read_alias_file+0x154>
  404424:	52800141 	mov	w1, #0xa                   	// #10
  404428:	aa1403e0 	mov	x0, x20
  40442c:	940045f5 	bl	415c00 <strchr>
  404430:	aa1403f3 	mov	x19, x20
  404434:	3942e3a1 	ldrb	w1, [x29, #184]
  404438:	aa0003fb 	mov	x27, x0
  40443c:	f94002c3 	ldr	x3, [x22]
  404440:	d37f1c22 	ubfiz	x2, x1, #1, #8
  404444:	78626862 	ldrh	w2, [x3, x2]
  404448:	366800c2 	tbz	w2, #13, 404460 <read_alias_file+0x13c>
  40444c:	d503201f 	nop
  404450:	38401e61 	ldrb	w1, [x19, #1]!
  404454:	d37f1c22 	ubfiz	x2, x1, #1, #8
  404458:	78626862 	ldrh	w2, [x3, x2]
  40445c:	376fffa2 	tbnz	w2, #13, 404450 <read_alias_file+0x12c>
  404460:	71008c3f 	cmp	w1, #0x23
  404464:	7a401824 	ccmp	w1, #0x0, #0x4, ne  // ne = any
  404468:	54000521 	b.ne	40450c <read_alias_file+0x1e8>  // b.any
  40446c:	b400045b 	cbz	x27, 4044f4 <read_alias_file+0x1d0>
  404470:	b94002a0 	ldr	w0, [x21]
  404474:	3627fce0 	tbz	w0, #4, 404410 <read_alias_file+0xec>
  404478:	aa1503e0 	mov	x0, x21
  40447c:	94000ca1 	bl	407700 <_IO_new_fclose>
  404480:	b4000139 	cbz	x25, 4044a4 <read_alias_file+0x180>
  404484:	d0000481 	adrp	x1, 496000 <_IO_strn_jumps+0x88>
  404488:	f00004a0 	adrp	x0, 49b000 <_dl_in_flight_stack>
  40448c:	90000003 	adrp	x3, 404000 <_nl_load_domain+0x1030>
  404490:	d2800202 	mov	x2, #0x10                  	// #16
  404494:	f944e821 	ldr	x1, [x1, #2512]
  404498:	910c4063 	add	x3, x3, #0x310
  40449c:	f9435c00 	ldr	x0, [x0, #1720]
  4044a0:	94000808 	bl	4064c0 <qsort>
  4044a4:	f945fb18 	ldr	x24, [x24, #3056]
  4044a8:	f94127a0 	ldr	x0, [x29, #584]
  4044ac:	f9400301 	ldr	x1, [x24]
  4044b0:	eb010000 	subs	x0, x0, x1
  4044b4:	d2800001 	mov	x1, #0x0                   	// #0
  4044b8:	54001521 	b.ne	40475c <read_alias_file+0x438>  // b.any
  4044bc:	d10043bf 	sub	sp, x29, #0x10
  4044c0:	aa1903e0 	mov	x0, x25
  4044c4:	a9417bfd 	ldp	x29, x30, [sp, #16]
  4044c8:	a94253f3 	ldp	x19, x20, [sp, #32]
  4044cc:	a9435bf5 	ldp	x21, x22, [sp, #48]
  4044d0:	a94463f7 	ldp	x23, x24, [sp, #64]
  4044d4:	a9456bf9 	ldp	x25, x26, [sp, #80]
  4044d8:	a94673fb 	ldp	x27, x28, [sp, #96]
  4044dc:	910983ff 	add	sp, sp, #0x260
  4044e0:	d65f03c0 	ret
  4044e4:	aa1403e0 	mov	x0, x20
  4044e8:	52800141 	mov	w1, #0xa                   	// #10
  4044ec:	940045c5 	bl	415c00 <strchr>
  4044f0:	b5fffc00 	cbnz	x0, 404470 <read_alias_file+0x14c>
  4044f4:	aa1503e2 	mov	x2, x21
  4044f8:	aa1403e0 	mov	x0, x20
  4044fc:	52803201 	mov	w1, #0x190                 	// #400
  404500:	94001724 	bl	40a190 <__fgets_unlocked>
  404504:	b5ffff00 	cbnz	x0, 4044e4 <read_alias_file+0x1c0>
  404508:	17ffffda 	b	404470 <read_alias_file+0x14c>
  40450c:	39400661 	ldrb	w1, [x19, #1]
  404510:	9100067a 	add	x26, x19, #0x1
  404514:	35000061 	cbnz	w1, 404520 <read_alias_file+0x1fc>
  404518:	14000009 	b	40453c <read_alias_file+0x218>
  40451c:	34000101 	cbz	w1, 40453c <read_alias_file+0x218>
  404520:	d37f1c22 	ubfiz	x2, x1, #1, #8
  404524:	aa1a03e4 	mov	x4, x26
  404528:	39400741 	ldrb	w1, [x26, #1]
  40452c:	9100075a 	add	x26, x26, #0x1
  404530:	78626862 	ldrh	w2, [x3, x2]
  404534:	366fff42 	tbz	w2, #13, 40451c <read_alias_file+0x1f8>
  404538:	3900009f 	strb	wzr, [x4]
  40453c:	d37f1c20 	ubfiz	x0, x1, #1, #8
  404540:	78606860 	ldrh	w0, [x3, x0]
  404544:	366800a0 	tbz	w0, #13, 404558 <read_alias_file+0x234>
  404548:	38401f41 	ldrb	w1, [x26, #1]!
  40454c:	d37f1c22 	ubfiz	x2, x1, #1, #8
  404550:	78626862 	ldrh	w2, [x3, x2]
  404554:	376fffa2 	tbnz	w2, #13, 404548 <read_alias_file+0x224>
  404558:	34fff8a1 	cbz	w1, 40446c <read_alias_file+0x148>
  40455c:	39400741 	ldrb	w1, [x26, #1]
  404560:	91000740 	add	x0, x26, #0x1
  404564:	35000081 	cbnz	w1, 404574 <read_alias_file+0x250>
  404568:	1400000a 	b	404590 <read_alias_file+0x26c>
  40456c:	38401c01 	ldrb	w1, [x0, #1]!
  404570:	34000101 	cbz	w1, 404590 <read_alias_file+0x26c>
  404574:	d37f1c22 	ubfiz	x2, x1, #1, #8
  404578:	78626862 	ldrh	w2, [x3, x2]
  40457c:	366fff82 	tbz	w2, #13, 40456c <read_alias_file+0x248>
  404580:	7100283f 	cmp	w1, #0xa
  404584:	540009c1 	b.ne	4046bc <read_alias_file+0x398>  // b.any
  404588:	52814001 	mov	w1, #0xa00                 	// #2560
  40458c:	79000001 	strh	w1, [x0]
  404590:	a94002fc 	ldp	x28, x0, [x23]
  404594:	f00004a5 	adrp	x5, 49b000 <_dl_in_flight_stack>
  404598:	eb00039f 	cmp	x28, x0
  40459c:	540009a2 	b.cs	4046d0 <read_alias_file+0x3ac>  // b.hs, b.nlast
  4045a0:	aa1303e0 	mov	x0, x19
  4045a4:	f90053a5 	str	x5, [x29, #160]
  4045a8:	97ffef56 	bl	400300 <.plt+0x60>
  4045ac:	aa0003e2 	mov	x2, x0
  4045b0:	91000442 	add	x2, x2, #0x1
  4045b4:	aa1a03e0 	mov	x0, x26
  4045b8:	f90057a2 	str	x2, [x29, #168]
  4045bc:	97ffef51 	bl	400300 <.plt+0x60>
  4045c0:	91000404 	add	x4, x0, #0x1
  4045c4:	a94a0ba5 	ldp	x5, x2, [x29, #160]
  4045c8:	a94106ea 	ldp	x10, x1, [x23, #16]
  4045cc:	911ae0a6 	add	x6, x5, #0x6b8
  4045d0:	8b020149 	add	x9, x10, x2
  4045d4:	8b040128 	add	x8, x9, x4
  4045d8:	f94004c3 	ldr	x3, [x6, #8]
  4045dc:	eb01011f 	cmp	x8, x1
  4045e0:	54000388 	b.hi	404650 <read_alias_file+0x32c>  // b.pmore
  4045e4:	f9435cab 	ldr	x11, [x5, #1720]
  4045e8:	d37cef87 	lsl	x7, x28, #4
  4045ec:	8b070165 	add	x5, x11, x7
  4045f0:	8b0a0060 	add	x0, x3, x10
  4045f4:	aa1303e1 	mov	x1, x19
  4045f8:	a907a3a4 	stp	x4, x8, [x29, #120]
  4045fc:	9100079c 	add	x28, x28, #0x1
  404600:	a9089fa9 	stp	x9, x7, [x29, #136]
  404604:	91000739 	add	x25, x25, #0x1
  404608:	a90997ab 	stp	x11, x5, [x29, #152]
  40460c:	f90057a3 	str	x3, [x29, #168]
  404610:	97ffef28 	bl	4002b0 <.plt+0x10>
  404614:	a9489fa9 	ldp	x9, x7, [x29, #136]
  404618:	aa1a03e1 	mov	x1, x26
  40461c:	f9404fab 	ldr	x11, [x29, #152]
  404620:	f9403fa4 	ldr	x4, [x29, #120]
  404624:	f94057a3 	ldr	x3, [x29, #168]
  404628:	f8276960 	str	x0, [x11, x7]
  40462c:	aa0403e2 	mov	x2, x4
  404630:	8b090060 	add	x0, x3, x9
  404634:	97ffef1f 	bl	4002b0 <.plt+0x10>
  404638:	f90002fc 	str	x28, [x23]
  40463c:	f94053a5 	ldr	x5, [x29, #160]
  404640:	f94043a8 	ldr	x8, [x29, #128]
  404644:	f9000ae8 	str	x8, [x23, #16]
  404648:	f90004a0 	str	x0, [x5, #8]
  40464c:	17ffff88 	b	40446c <read_alias_file+0x148>
  404650:	8b040047 	add	x7, x2, x4
  404654:	d280800b 	mov	x11, #0x400                 	// #1024
  404658:	eb0b00ff 	cmp	x7, x11
  40465c:	aa0303e0 	mov	x0, x3
  404660:	9a8b20e7 	csel	x7, x7, x11, cs  // cs = hs, nlast
  404664:	a9069ba5 	stp	x5, x6, [x29, #104]
  404668:	8b0100e1 	add	x1, x7, x1
  40466c:	a907a7a8 	stp	x8, x9, [x29, #120]
  404670:	a90893aa 	stp	x10, x4, [x29, #136]
  404674:	a9098fa2 	stp	x2, x3, [x29, #152]
  404678:	f90057a1 	str	x1, [x29, #168]
  40467c:	9400409e 	bl	4148f4 <__libc_realloc>
  404680:	b4ffefc0 	cbz	x0, 404478 <read_alias_file+0x154>
  404684:	a9469ba5 	ldp	x5, x6, [x29, #104]
  404688:	a9498fa2 	ldp	x2, x3, [x29, #152]
  40468c:	a947a7a8 	ldp	x8, x9, [x29, #120]
  404690:	f94000cb 	ldr	x11, [x6]
  404694:	eb03001f 	cmp	x0, x3
  404698:	a94893aa 	ldp	x10, x4, [x29, #136]
  40469c:	f94057a1 	ldr	x1, [x29, #168]
  4046a0:	540003e1 	b.ne	40471c <read_alias_file+0x3f8>  // b.any
  4046a4:	d37cef87 	lsl	x7, x28, #4
  4046a8:	911ae0a5 	add	x5, x5, #0x6b8
  4046ac:	aa0003e3 	mov	x3, x0
  4046b0:	f9000ee1 	str	x1, [x23, #24]
  4046b4:	f90004a0 	str	x0, [x5, #8]
  4046b8:	17ffffcd 	b	4045ec <read_alias_file+0x2c8>
  4046bc:	3900001f 	strb	wzr, [x0]
  4046c0:	f00004a5 	adrp	x5, 49b000 <_dl_in_flight_stack>
  4046c4:	a94002fc 	ldp	x28, x0, [x23]
  4046c8:	eb00039f 	cmp	x28, x0
  4046cc:	54fff6a3 	b.cc	4045a0 <read_alias_file+0x27c>  // b.lo, b.ul, b.last
  4046d0:	b5000180 	cbnz	x0, 404700 <read_alias_file+0x3dc>
  4046d4:	d280c801 	mov	x1, #0x640                 	// #1600
  4046d8:	d2800c82 	mov	x2, #0x64                  	// #100
  4046dc:	f00004a5 	adrp	x5, 49b000 <_dl_in_flight_stack>
  4046e0:	a90a17a2 	stp	x2, x5, [x29, #160]
  4046e4:	f9435ca0 	ldr	x0, [x5, #1720]
  4046e8:	94004083 	bl	4148f4 <__libc_realloc>
  4046ec:	b4ffec60 	cbz	x0, 404478 <read_alias_file+0x154>
  4046f0:	a94a17a2 	ldp	x2, x5, [x29, #160]
  4046f4:	f90006e2 	str	x2, [x23, #8]
  4046f8:	f9035ca0 	str	x0, [x5, #1720]
  4046fc:	17ffffa9 	b	4045a0 <read_alias_file+0x27c>
  404700:	d37ff802 	lsl	x2, x0, #1
  404704:	d37be801 	lsl	x1, x0, #5
  404708:	17fffff5 	b	4046dc <read_alias_file+0x3b8>
  40470c:	f90203ff 	str	xzr, [sp, #1024]
  404710:	17ffff23 	b	40439c <read_alias_file+0x78>
  404714:	d2800019 	mov	x25, #0x0                   	// #0
  404718:	17ffff63 	b	4044a4 <read_alias_file+0x180>
  40471c:	d2800007 	mov	x7, #0x0                   	// #0
  404720:	b4fffc5c 	cbz	x28, 4046a8 <read_alias_file+0x384>
  404724:	d37cef87 	lsl	x7, x28, #4
  404728:	cb030003 	sub	x3, x0, x3
  40472c:	8b07016e 	add	x14, x11, x7
  404730:	aa0b03e6 	mov	x6, x11
  404734:	a94030cd 	ldp	x13, x12, [x6]
  404738:	8b0301ad 	add	x13, x13, x3
  40473c:	8b03018c 	add	x12, x12, x3
  404740:	a90030cd 	stp	x13, x12, [x6]
  404744:	910040c6 	add	x6, x6, #0x10
  404748:	eb0601df 	cmp	x14, x6
  40474c:	54ffff41 	b.ne	404734 <read_alias_file+0x410>  // b.any
  404750:	17ffffd6 	b	4046a8 <read_alias_file+0x384>
  404754:	94000beb 	bl	407700 <_IO_new_fclose>
  404758:	17ffff53 	b	4044a4 <read_alias_file+0x180>
  40475c:	94006155 	bl	41ccb0 <__stack_chk_fail>

0000000000404760 <_nl_expand_alias>:
  404760:	a9bb7bfd 	stp	x29, x30, [sp, #-80]!
  404764:	52800021 	mov	w1, #0x1                   	// #1
  404768:	910003fd 	mov	x29, sp
  40476c:	a90153f3 	stp	x19, x20, [sp, #16]
  404770:	aa0003f4 	mov	x20, x0
  404774:	52800000 	mov	w0, #0x0                   	// #0
  404778:	a9025bf5 	stp	x21, x22, [sp, #32]
  40477c:	d0000495 	adrp	x21, 496000 <_IO_strn_jumps+0x88>
  404780:	912742b3 	add	x19, x21, #0x9d0
  404784:	91008273 	add	x19, x19, #0x20
  404788:	a90363f7 	stp	x23, x24, [sp, #48]
  40478c:	aa1303e2 	mov	x2, x19
  404790:	a9046bf9 	stp	x25, x26, [sp, #64]
  404794:	94013bfb 	bl	453780 <__aarch64_cas4_acq>
  404798:	35000d00 	cbnz	w0, 404938 <_nl_expand_alias+0x1d8>
  40479c:	912742a1 	add	x1, x21, #0x9d0
  4047a0:	f9401420 	ldr	x0, [x1, #40]
  4047a4:	b4000a00 	cbz	x0, 4048e4 <_nl_expand_alias+0x184>
  4047a8:	f944eab7 	ldr	x23, [x21, #2512]
  4047ac:	f0000473 	adrp	x19, 493000 <tunable_list+0x528>
  4047b0:	91280273 	add	x19, x19, #0xa00
  4047b4:	b50006d7 	cbnz	x23, 40488c <_nl_expand_alias+0x12c>
  4047b8:	912742b6 	add	x22, x21, #0x9d0
  4047bc:	f94016c3 	ldr	x3, [x22, #40]
  4047c0:	52800001 	mov	w1, #0x0                   	// #0
  4047c4:	39400060 	ldrb	w0, [x3]
  4047c8:	340002c0 	cbz	w0, 404820 <_nl_expand_alias+0xc0>
  4047cc:	d503201f 	nop
  4047d0:	91000461 	add	x1, x3, #0x1
  4047d4:	7100e81f 	cmp	w0, #0x3a
  4047d8:	54000821 	b.ne	4048dc <_nl_expand_alias+0x17c>  // b.any
  4047dc:	d503201f 	nop
  4047e0:	aa0103e0 	mov	x0, x1
  4047e4:	38401422 	ldrb	w2, [x1], #1
  4047e8:	7100e85f 	cmp	w2, #0x3a
  4047ec:	54ffffa0 	b.eq	4047e0 <_nl_expand_alias+0x80>  // b.none
  4047f0:	340003c2 	cbz	w2, 404868 <_nl_expand_alias+0x108>
  4047f4:	91000401 	add	x1, x0, #0x1
  4047f8:	aa0103e3 	mov	x3, x1
  4047fc:	38401422 	ldrb	w2, [x1], #1
  404800:	7100e85f 	cmp	w2, #0x3a
  404804:	7a401844 	ccmp	w2, #0x0, #0x4, ne  // ne = any
  404808:	54ffff81 	b.ne	4047f8 <_nl_expand_alias+0x98>  // b.any
  40480c:	eb00007f 	cmp	x3, x0
  404810:	54000328 	b.hi	404874 <_nl_expand_alias+0x114>  // b.pmore
  404814:	52800021 	mov	w1, #0x1                   	// #1
  404818:	39400060 	ldrb	w0, [x3]
  40481c:	35fffda0 	cbnz	w0, 4047d0 <_nl_expand_alias+0x70>
  404820:	34000061 	cbz	w1, 40482c <_nl_expand_alias+0xcc>
  404824:	912742a0 	add	x0, x21, #0x9d0
  404828:	f9001403 	str	x3, [x0, #40]
  40482c:	912742b4 	add	x20, x21, #0x9d0
  404830:	d2800013 	mov	x19, #0x0                   	// #0
  404834:	91008294 	add	x20, x20, #0x20
  404838:	52800000 	mov	w0, #0x0                   	// #0
  40483c:	aa1403e1 	mov	x1, x20
  404840:	94013c64 	bl	4539d0 <__aarch64_swp4_rel>
  404844:	7100041f 	cmp	w0, #0x1
  404848:	5400066c 	b.gt	404914 <_nl_expand_alias+0x1b4>
  40484c:	aa1303e0 	mov	x0, x19
  404850:	a94153f3 	ldp	x19, x20, [sp, #16]
  404854:	a9425bf5 	ldp	x21, x22, [sp, #32]
  404858:	a94363f7 	ldp	x23, x24, [sp, #48]
  40485c:	a9446bf9 	ldp	x25, x26, [sp, #64]
  404860:	a8c57bfd 	ldp	x29, x30, [sp], #80
  404864:	d65f03c0 	ret
  404868:	aa0003e3 	mov	x3, x0
  40486c:	52800021 	mov	w1, #0x1                   	// #1
  404870:	17ffffea 	b	404818 <_nl_expand_alias+0xb8>
  404874:	4b000061 	sub	w1, w3, w0
  404878:	f90016c3 	str	x3, [x22, #40]
  40487c:	97fffeaa 	bl	404324 <read_alias_file>
  404880:	b4fff9e0 	cbz	x0, 4047bc <_nl_expand_alias+0x5c>
  404884:	f944eab7 	ldr	x23, [x21, #2512]
  404888:	b4fff997 	cbz	x23, 4047b8 <_nl_expand_alias+0x58>
  40488c:	f00004a0 	adrp	x0, 49b000 <_dl_in_flight_stack>
  404890:	d2800018 	mov	x24, #0x0                   	// #0
  404894:	f9435c19 	ldr	x25, [x0, #1720]
  404898:	14000005 	b	4048ac <_nl_expand_alias+0x14c>
  40489c:	540002c0 	b.eq	4048f4 <_nl_expand_alias+0x194>  // b.none
  4048a0:	910006d8 	add	x24, x22, #0x1
  4048a4:	eb1802ff 	cmp	x23, x24
  4048a8:	54fff889 	b.ls	4047b8 <_nl_expand_alias+0x58>  // b.plast
  4048ac:	8b170316 	add	x22, x24, x23
  4048b0:	aa1303e2 	mov	x2, x19
  4048b4:	aa1403e0 	mov	x0, x20
  4048b8:	d341fed6 	lsr	x22, x22, #1
  4048bc:	d37ceec1 	lsl	x1, x22, #4
  4048c0:	8b01033a 	add	x26, x25, x1
  4048c4:	f8616b21 	ldr	x1, [x25, x1]
  4048c8:	940049d2 	bl	417010 <__strcasecmp_l>
  4048cc:	7100001f 	cmp	w0, #0x0
  4048d0:	54fffe6a 	b.ge	40489c <_nl_expand_alias+0x13c>  // b.tcont
  4048d4:	aa1603f7 	mov	x23, x22
  4048d8:	17fffff3 	b	4048a4 <_nl_expand_alias+0x144>
  4048dc:	aa0303e0 	mov	x0, x3
  4048e0:	17ffffc5 	b	4047f4 <_nl_expand_alias+0x94>
  4048e4:	d00002a0 	adrp	x0, 45a000 <ex5_shuffle_pattern+0x7a0>
  4048e8:	9105c000 	add	x0, x0, #0x170
  4048ec:	f9001420 	str	x0, [x1, #40]
  4048f0:	17ffffae 	b	4047a8 <_nl_expand_alias+0x48>
  4048f4:	912742b4 	add	x20, x21, #0x9d0
  4048f8:	52800000 	mov	w0, #0x0                   	// #0
  4048fc:	91008294 	add	x20, x20, #0x20
  404900:	aa1403e1 	mov	x1, x20
  404904:	f9400753 	ldr	x19, [x26, #8]
  404908:	94013c32 	bl	4539d0 <__aarch64_swp4_rel>
  40490c:	7100041f 	cmp	w0, #0x1
  404910:	54fff9ed 	b.le	40484c <_nl_expand_alias+0xec>
  404914:	aa1403e0 	mov	x0, x20
  404918:	94002a0b 	bl	40f144 <__lll_lock_wake_private>
  40491c:	aa1303e0 	mov	x0, x19
  404920:	a94153f3 	ldp	x19, x20, [sp, #16]
  404924:	a9425bf5 	ldp	x21, x22, [sp, #32]
  404928:	a94363f7 	ldp	x23, x24, [sp, #48]
  40492c:	a9446bf9 	ldp	x25, x26, [sp, #64]
  404930:	a8c57bfd 	ldp	x29, x30, [sp], #80
  404934:	d65f03c0 	ret
  404938:	aa1303e0 	mov	x0, x19
  40493c:	940029c1 	bl	40f040 <__lll_lock_wait_private>
  404940:	17ffff97 	b	40479c <_nl_expand_alias+0x3c>
  404944:	d503201f 	nop
  404948:	d503201f 	nop
  40494c:	d503201f 	nop

0000000000404950 <_nl_make_l10nflist>:
  404950:	d102c3ff 	sub	sp, sp, #0xb0
  404954:	a9027bfd 	stp	x29, x30, [sp, #32]
  404958:	910083fd 	add	x29, sp, #0x20
  40495c:	a90353f3 	stp	x19, x20, [sp, #48]
  404960:	2a0303f4 	mov	w20, w3
  404964:	a9045bf5 	stp	x21, x22, [sp, #64]
  404968:	aa0203f5 	mov	x21, x2
  40496c:	aa0503f6 	mov	x22, x5
  404970:	a90563f7 	stp	x23, x24, [sp, #80]
  404974:	aa0403f7 	mov	x23, x4
  404978:	121e0078 	and	w24, w3, #0x4
  40497c:	a9066bf9 	stp	x25, x26, [sp, #96]
  404980:	aa0103f9 	mov	x25, x1
  404984:	9100085a 	add	x26, x2, #0x2
  404988:	a9081be0 	stp	x0, x6, [sp, #128]
  40498c:	aa0403e0 	mov	x0, x4
  404990:	a90917e7 	stp	x7, x5, [sp, #144]
  404994:	97ffee5b 	bl	400300 <.plt+0x60>
  404998:	aa0003f3 	mov	x19, x0
  40499c:	d2800000 	mov	x0, #0x0                   	// #0
  4049a0:	36100094 	tbz	w20, #2, 4049b0 <_nl_make_l10nflist+0x60>
  4049a4:	aa1603e0 	mov	x0, x22
  4049a8:	97ffee56 	bl	400300 <.plt+0x60>
  4049ac:	91000400 	add	x0, x0, #0x1
  4049b0:	8b000273 	add	x19, x19, x0
  4049b4:	121f0280 	and	w0, w20, #0x2
  4049b8:	b900a3e0 	str	w0, [sp, #160]
  4049bc:	8b1a0273 	add	x19, x19, x26
  4049c0:	d2800016 	mov	x22, #0x0                   	// #0
  4049c4:	36080094 	tbz	w20, #1, 4049d4 <_nl_make_l10nflist+0x84>
  4049c8:	f94047e0 	ldr	x0, [sp, #136]
  4049cc:	97ffee4d 	bl	400300 <.plt+0x60>
  4049d0:	91000416 	add	x22, x0, #0x1
  4049d4:	12000281 	and	w1, w20, #0x1
  4049d8:	b900abe1 	str	w1, [sp, #168]
  4049dc:	d2800000 	mov	x0, #0x0                   	// #0
  4049e0:	36000094 	tbz	w20, #0, 4049f0 <_nl_make_l10nflist+0xa0>
  4049e4:	f9404be0 	ldr	x0, [sp, #144]
  4049e8:	97ffee46 	bl	400300 <.plt+0x60>
  4049ec:	91000400 	add	x0, x0, #0x1
  4049f0:	8b0002c0 	add	x0, x22, x0
  4049f4:	d2800016 	mov	x22, #0x0                   	// #0
  4049f8:	8b130013 	add	x19, x0, x19
  4049fc:	121d0280 	and	w0, w20, #0x8
  404a00:	b900afe0 	str	w0, [sp, #172]
  404a04:	36180094 	tbz	w20, #3, 404a14 <_nl_make_l10nflist+0xc4>
  404a08:	f9405be0 	ldr	x0, [sp, #176]
  404a0c:	97ffee3d 	bl	400300 <.plt+0x60>
  404a10:	91000416 	add	x22, x0, #0x1
  404a14:	f9405fe0 	ldr	x0, [sp, #184]
  404a18:	97ffee3a 	bl	400300 <.plt+0x60>
  404a1c:	aa0003fa 	mov	x26, x0
  404a20:	8b160000 	add	x0, x0, x22
  404a24:	8b130000 	add	x0, x0, x19
  404a28:	94003dc2 	bl	414130 <__libc_malloc>
  404a2c:	aa0003f3 	mov	x19, x0
  404a30:	b4002360 	cbz	x0, 404e9c <_nl_make_l10nflist+0x54c>
  404a34:	aa1503e2 	mov	x2, x21
  404a38:	aa1903e1 	mov	x1, x25
  404a3c:	a90773fb 	stp	x27, x28, [sp, #112]
  404a40:	97ffee1c 	bl	4002b0 <.plt+0x10>
  404a44:	b4000255 	cbz	x21, 404a8c <_nl_make_l10nflist+0x13c>
  404a48:	aa1503fc 	mov	x28, x21
  404a4c:	aa1303fb 	mov	x27, x19
  404a50:	aa1b03e0 	mov	x0, x27
  404a54:	97ffee2b 	bl	400300 <.plt+0x60>
  404a58:	8b00037b 	add	x27, x27, x0
  404a5c:	cb000380 	sub	x0, x28, x0
  404a60:	f100041c 	subs	x28, x0, #0x1
  404a64:	52800756 	mov	w22, #0x3a                  	// #58
  404a68:	54000120 	b.eq	404a8c <_nl_make_l10nflist+0x13c>  // b.none
  404a6c:	d503201f 	nop
  404a70:	38001776 	strb	w22, [x27], #1
  404a74:	aa1b03e0 	mov	x0, x27
  404a78:	97ffee22 	bl	400300 <.plt+0x60>
  404a7c:	8b00037b 	add	x27, x27, x0
  404a80:	cb000380 	sub	x0, x28, x0
  404a84:	f100041c 	subs	x28, x0, #0x1
  404a88:	54ffff41 	b.ne	404a70 <_nl_make_l10nflist+0x120>  // b.any
  404a8c:	8b150260 	add	x0, x19, x21
  404a90:	528005e2 	mov	w2, #0x2f                  	// #47
  404a94:	aa1703e1 	mov	x1, x23
  404a98:	381ff002 	sturb	w2, [x0, #-1]
  404a9c:	94004909 	bl	416ec0 <__stpcpy>
  404aa0:	35001cb8 	cbnz	w24, 404e34 <_nl_make_l10nflist+0x4e4>
  404aa4:	b940a3e1 	ldr	w1, [sp, #160]
  404aa8:	35001bc1 	cbnz	w1, 404e20 <_nl_make_l10nflist+0x4d0>
  404aac:	b940abe1 	ldr	w1, [sp, #168]
  404ab0:	35001a21 	cbnz	w1, 404df4 <_nl_make_l10nflist+0x4a4>
  404ab4:	b940afe1 	ldr	w1, [sp, #172]
  404ab8:	35001aa1 	cbnz	w1, 404e0c <_nl_make_l10nflist+0x4bc>
  404abc:	f9405fe1 	ldr	x1, [sp, #184]
  404ac0:	528005e3 	mov	w3, #0x2f                  	// #47
  404ac4:	38001403 	strb	w3, [x0], #1
  404ac8:	91000742 	add	x2, x26, #0x1
  404acc:	d2800016 	mov	x22, #0x0                   	// #0
  404ad0:	97ffedf8 	bl	4002b0 <.plt+0x10>
  404ad4:	f94043e0 	ldr	x0, [sp, #128]
  404ad8:	f940001a 	ldr	x26, [x0]
  404adc:	f90053fa 	str	x26, [sp, #160]
  404ae0:	b400019a 	cbz	x26, 404b10 <_nl_make_l10nflist+0x1c0>
  404ae4:	d503201f 	nop
  404ae8:	f9400340 	ldr	x0, [x26]
  404aec:	aa1303e1 	mov	x1, x19
  404af0:	b40000c0 	cbz	x0, 404b08 <_nl_make_l10nflist+0x1b8>
  404af4:	94004473 	bl	415cc0 <strcmp>
  404af8:	7100001f 	cmp	w0, #0x0
  404afc:	34001660 	cbz	w0, 404dc8 <_nl_make_l10nflist+0x478>
  404b00:	5400008b 	b.lt	404b10 <_nl_make_l10nflist+0x1c0>  // b.tstop
  404b04:	aa1a03f6 	mov	x22, x26
  404b08:	f9400f5a 	ldr	x26, [x26, #24]
  404b0c:	b5fffefa 	cbnz	x26, 404ae8 <_nl_make_l10nflist+0x198>
  404b10:	b940c3e0 	ldr	w0, [sp, #192]
  404b14:	34001580 	cbz	w0, 404dc4 <_nl_make_l10nflist+0x474>
  404b18:	12855540 	mov	w0, #0xffffd555            	// #-10923
  404b1c:	528aaaa1 	mov	w1, #0x5555                	// #21845
  404b20:	0a940400 	and	w0, w0, w20, asr #1
  404b24:	0a010281 	and	w1, w20, w1
  404b28:	0b010000 	add	w0, w0, w1
  404b2c:	12819982 	mov	w2, #0xfffff333            	// #-3277
  404b30:	52866661 	mov	w1, #0x3333                	// #13107
  404b34:	0a010001 	and	w1, w0, w1
  404b38:	0a800840 	and	w0, w2, w0, asr #2
  404b3c:	5281e1e5 	mov	w5, #0xf0f                 	// #3855
  404b40:	0b010000 	add	w0, w0, w1
  404b44:	52800024 	mov	w4, #0x1                   	// #1
  404b48:	aa1503f8 	mov	x24, x21
  404b4c:	aa1903fc 	mov	x28, x25
  404b50:	0b801000 	add	w0, w0, w0, asr #4
  404b54:	d280001b 	mov	x27, #0x0                   	// #0
  404b58:	0a050000 	and	w0, w0, w5
  404b5c:	0b402000 	add	w0, w0, w0, lsr #8
  404b60:	1ac02080 	lsl	w0, w4, w0
  404b64:	93407c1a 	sxtw	x26, w0
  404b68:	b40017f5 	cbz	x21, 404e64 <_nl_make_l10nflist+0x514>
  404b6c:	d503201f 	nop
  404b70:	aa1c03e0 	mov	x0, x28
  404b74:	97ffede3 	bl	400300 <.plt+0x60>
  404b78:	cb000301 	sub	x1, x24, x0
  404b7c:	91000400 	add	x0, x0, #0x1
  404b80:	9100077b 	add	x27, x27, #0x1
  404b84:	f1000438 	subs	x24, x1, #0x1
  404b88:	8b00039c 	add	x28, x28, x0
  404b8c:	54ffff21 	b.ne	404b70 <_nl_make_l10nflist+0x220>  // b.any
  404b90:	9b1a7f60 	mul	x0, x27, x26
  404b94:	d37cec00 	lsl	x0, x0, #4
  404b98:	9100a000 	add	x0, x0, #0x28
  404b9c:	94003d65 	bl	414130 <__libc_malloc>
  404ba0:	aa0003fa 	mov	x26, x0
  404ba4:	b4001720 	cbz	x0, 404e88 <_nl_make_l10nflist+0x538>
  404ba8:	aa1503fc 	mov	x28, x21
  404bac:	aa1903fb 	mov	x27, x25
  404bb0:	f9000013 	str	x19, [x0]
  404bb4:	d503201f 	nop
  404bb8:	aa1b03e0 	mov	x0, x27
  404bbc:	97ffedd1 	bl	400300 <.plt+0x60>
  404bc0:	cb000382 	sub	x2, x28, x0
  404bc4:	91000400 	add	x0, x0, #0x1
  404bc8:	91000718 	add	x24, x24, #0x1
  404bcc:	f100045c 	subs	x28, x2, #0x1
  404bd0:	8b00037b 	add	x27, x27, x0
  404bd4:	54ffff21 	b.ne	404bb8 <_nl_make_l10nflist+0x268>  // b.any
  404bd8:	52800020 	mov	w0, #0x1                   	// #1
  404bdc:	f100071f 	cmp	x24, #0x1
  404be0:	540007c0 	b.eq	404cd8 <_nl_make_l10nflist+0x388>  // b.none
  404be4:	b9000b40 	str	w0, [x26, #8]
  404be8:	f9000b5f 	str	xzr, [x26, #16]
  404bec:	b40012f6 	cbz	x22, 404e48 <_nl_make_l10nflist+0x4f8>
  404bf0:	f9400ec0 	ldr	x0, [x22, #24]
  404bf4:	f9000f40 	str	x0, [x26, #24]
  404bf8:	f9000eda 	str	x26, [x22, #24]
  404bfc:	b4001315 	cbz	x21, 404e5c <_nl_make_l10nflist+0x50c>
  404c00:	aa1503f3 	mov	x19, x21
  404c04:	aa1903f6 	mov	x22, x25
  404c08:	d2800018 	mov	x24, #0x0                   	// #0
  404c0c:	d503201f 	nop
  404c10:	aa1603e0 	mov	x0, x22
  404c14:	97ffedbb 	bl	400300 <.plt+0x60>
  404c18:	cb000261 	sub	x1, x19, x0
  404c1c:	91000400 	add	x0, x0, #0x1
  404c20:	91000718 	add	x24, x24, #0x1
  404c24:	f1000433 	subs	x19, x1, #0x1
  404c28:	8b0002d6 	add	x22, x22, x0
  404c2c:	54ffff21 	b.ne	404c10 <_nl_make_l10nflist+0x2c0>  // b.any
  404c30:	f100071f 	cmp	x24, #0x1
  404c34:	1a9f17f8 	cset	w24, eq  // eq = none
  404c38:	4b180298 	sub	w24, w20, w24
  404c3c:	2a3403ea 	mvn	w10, w20
  404c40:	d2800013 	mov	x19, #0x0                   	// #0
  404c44:	37f80158 	tbnz	w24, #31, 404c6c <_nl_make_l10nflist+0x31c>
  404c48:	8b150336 	add	x22, x25, x21
  404c4c:	91006340 	add	x0, x26, #0x18
  404c50:	5280003c 	mov	w28, #0x1                   	// #1
  404c54:	f90053e0 	str	x0, [sp, #160]
  404c58:	6a0a031f 	tst	w24, w10
  404c5c:	54000700 	b.eq	404d3c <_nl_make_l10nflist+0x3ec>  // b.none
  404c60:	51000718 	sub	w24, w24, #0x1
  404c64:	3100071f 	cmn	w24, #0x1
  404c68:	54ffff81 	b.ne	404c58 <_nl_make_l10nflist+0x308>  // b.any
  404c6c:	f9405fe0 	ldr	x0, [sp, #184]
  404c70:	d00002a1 	adrp	x1, 45a000 <ex5_shuffle_pattern+0x7a0>
  404c74:	d2800162 	mov	x2, #0xb                   	// #11
  404c78:	91080021 	add	x1, x1, #0x200
  404c7c:	9400452a 	bl	416124 <strncmp>
  404c80:	35000160 	cbnz	w0, 404cac <_nl_make_l10nflist+0x35c>
  404c84:	37f80154 	tbnz	w20, #31, 404cac <_nl_make_l10nflist+0x35c>
  404c88:	d00002b6 	adrp	x22, 45a000 <ex5_shuffle_pattern+0x7a0>
  404c8c:	2a3403f5 	mvn	w21, w20
  404c90:	910842d6 	add	x22, x22, #0x210
  404c94:	52800038 	mov	w24, #0x1                   	// #1
  404c98:	6a15029f 	tst	w20, w21
  404c9c:	540002c0 	b.eq	404cf4 <_nl_make_l10nflist+0x3a4>  // b.none
  404ca0:	51000694 	sub	w20, w20, #0x1
  404ca4:	3100069f 	cmn	w20, #0x1
  404ca8:	54ffff81 	b.ne	404c98 <_nl_make_l10nflist+0x348>  // b.any
  404cac:	a94773fb 	ldp	x27, x28, [sp, #112]
  404cb0:	91001269 	add	x9, x19, #0x4
  404cb4:	f8297b5f 	str	xzr, [x26, x9, lsl #3]
  404cb8:	aa1a03e0 	mov	x0, x26
  404cbc:	a9427bfd 	ldp	x29, x30, [sp, #32]
  404cc0:	a94353f3 	ldp	x19, x20, [sp, #48]
  404cc4:	a9445bf5 	ldp	x21, x22, [sp, #64]
  404cc8:	a94563f7 	ldp	x23, x24, [sp, #80]
  404ccc:	a9466bf9 	ldp	x25, x26, [sp, #96]
  404cd0:	9102c3ff 	add	sp, sp, #0xb0
  404cd4:	d65f03c0 	ret
  404cd8:	12000680 	and	w0, w20, #0x3
  404cdc:	f9000b5f 	str	xzr, [x26, #16]
  404ce0:	71000c1f 	cmp	w0, #0x3
  404ce4:	1a9f17e0 	cset	w0, eq  // eq = none
  404ce8:	b9000b40 	str	w0, [x26, #8]
  404cec:	b5fff836 	cbnz	x22, 404bf0 <_nl_make_l10nflist+0x2a0>
  404cf0:	14000056 	b	404e48 <_nl_make_l10nflist+0x4f8>
  404cf4:	a9489fe6 	ldp	x6, x7, [sp, #136]
  404cf8:	b90013f8 	str	w24, [sp, #16]
  404cfc:	f9405be0 	ldr	x0, [sp, #176]
  404d00:	f90003e0 	str	x0, [sp]
  404d04:	f9405fe0 	ldr	x0, [sp, #184]
  404d08:	f90007e0 	str	x0, [sp, #8]
  404d0c:	f94043e0 	ldr	x0, [sp, #128]
  404d10:	aa1603e1 	mov	x1, x22
  404d14:	f9404fe5 	ldr	x5, [sp, #152]
  404d18:	aa1703e4 	mov	x4, x23
  404d1c:	2a1403e3 	mov	w3, w20
  404d20:	d2800362 	mov	x2, #0x1b                  	// #27
  404d24:	97ffff0b 	bl	404950 <_nl_make_l10nflist>
  404d28:	91001261 	add	x1, x19, #0x4
  404d2c:	91000669 	add	x9, x19, #0x1
  404d30:	aa0903f3 	mov	x19, x9
  404d34:	f8217b40 	str	x0, [x26, x1, lsl #3]
  404d38:	17ffffda 	b	404ca0 <_nl_make_l10nflist+0x350>
  404d3c:	d280001b 	mov	x27, #0x0                   	// #0
  404d40:	b40003db 	cbz	x27, 404db8 <_nl_make_l10nflist+0x468>
  404d44:	aa1b03e0 	mov	x0, x27
  404d48:	eb16037f 	cmp	x27, x22
  404d4c:	54fff8a2 	b.cs	404c60 <_nl_make_l10nflist+0x310>  // b.hs, b.nlast
  404d50:	b900abea 	str	w10, [sp, #168]
  404d54:	97ffed6b 	bl	400300 <.plt+0x60>
  404d58:	91000400 	add	x0, x0, #0x1
  404d5c:	b940abea 	ldr	w10, [sp, #168]
  404d60:	8b00037b 	add	x27, x27, x0
  404d64:	eb16037f 	cmp	x27, x22
  404d68:	54fff7c2 	b.cs	404c60 <_nl_make_l10nflist+0x310>  // b.hs, b.nlast
  404d6c:	aa1b03e0 	mov	x0, x27
  404d70:	b900abea 	str	w10, [sp, #168]
  404d74:	97ffed63 	bl	400300 <.plt+0x60>
  404d78:	91000402 	add	x2, x0, #0x1
  404d7c:	a9489fe6 	ldp	x6, x7, [sp, #136]
  404d80:	b90013fc 	str	w28, [sp, #16]
  404d84:	a94b03e1 	ldp	x1, x0, [sp, #176]
  404d88:	a90003e1 	stp	x1, x0, [sp]
  404d8c:	aa1703e4 	mov	x4, x23
  404d90:	f94043e0 	ldr	x0, [sp, #128]
  404d94:	aa1b03e1 	mov	x1, x27
  404d98:	f9404fe5 	ldr	x5, [sp, #152]
  404d9c:	2a1803e3 	mov	w3, w24
  404da0:	91000673 	add	x19, x19, #0x1
  404da4:	97fffeeb 	bl	404950 <_nl_make_l10nflist>
  404da8:	f94053e1 	ldr	x1, [sp, #160]
  404dac:	b940abea 	ldr	w10, [sp, #168]
  404db0:	f8337820 	str	x0, [x1, x19, lsl #3]
  404db4:	b5fffc9b 	cbnz	x27, 404d44 <_nl_make_l10nflist+0x3f4>
  404db8:	aa1903fb 	mov	x27, x25
  404dbc:	b4fff535 	cbz	x21, 404c60 <_nl_make_l10nflist+0x310>
  404dc0:	17ffffeb 	b	404d6c <_nl_make_l10nflist+0x41c>
  404dc4:	d280001a 	mov	x26, #0x0                   	// #0
  404dc8:	aa1303e0 	mov	x0, x19
  404dcc:	94003e39 	bl	4146b0 <__free>
  404dd0:	aa1a03e0 	mov	x0, x26
  404dd4:	a9427bfd 	ldp	x29, x30, [sp, #32]
  404dd8:	a94353f3 	ldp	x19, x20, [sp, #48]
  404ddc:	a9445bf5 	ldp	x21, x22, [sp, #64]
  404de0:	a94563f7 	ldp	x23, x24, [sp, #80]
  404de4:	a9466bf9 	ldp	x25, x26, [sp, #96]
  404de8:	a94773fb 	ldp	x27, x28, [sp, #112]
  404dec:	9102c3ff 	add	sp, sp, #0xb0
  404df0:	d65f03c0 	ret
  404df4:	f9404be1 	ldr	x1, [sp, #144]
  404df8:	528005c2 	mov	w2, #0x2e                  	// #46
  404dfc:	38001402 	strb	w2, [x0], #1
  404e00:	94004830 	bl	416ec0 <__stpcpy>
  404e04:	b940afe1 	ldr	w1, [sp, #172]
  404e08:	34ffe5a1 	cbz	w1, 404abc <_nl_make_l10nflist+0x16c>
  404e0c:	f9405be1 	ldr	x1, [sp, #176]
  404e10:	52800802 	mov	w2, #0x40                  	// #64
  404e14:	38001402 	strb	w2, [x0], #1
  404e18:	9400482a 	bl	416ec0 <__stpcpy>
  404e1c:	17ffff28 	b	404abc <_nl_make_l10nflist+0x16c>
  404e20:	f94047e1 	ldr	x1, [sp, #136]
  404e24:	528005c2 	mov	w2, #0x2e                  	// #46
  404e28:	38001402 	strb	w2, [x0], #1
  404e2c:	94004825 	bl	416ec0 <__stpcpy>
  404e30:	17ffff1f 	b	404aac <_nl_make_l10nflist+0x15c>
  404e34:	f9404fe1 	ldr	x1, [sp, #152]
  404e38:	52800be2 	mov	w2, #0x5f                  	// #95
  404e3c:	38001402 	strb	w2, [x0], #1
  404e40:	94004820 	bl	416ec0 <__stpcpy>
  404e44:	17ffff18 	b	404aa4 <_nl_make_l10nflist+0x154>
  404e48:	f94043e0 	ldr	x0, [sp, #128]
  404e4c:	f900001a 	str	x26, [x0]
  404e50:	f94053e0 	ldr	x0, [sp, #160]
  404e54:	f9000f40 	str	x0, [x26, #24]
  404e58:	17ffff69 	b	404bfc <_nl_make_l10nflist+0x2ac>
  404e5c:	2a1403f8 	mov	w24, w20
  404e60:	17ffff77 	b	404c3c <_nl_make_l10nflist+0x2ec>
  404e64:	d2800500 	mov	x0, #0x28                  	// #40
  404e68:	b900abe4 	str	w4, [sp, #168]
  404e6c:	94003cb1 	bl	414130 <__libc_malloc>
  404e70:	aa0003fa 	mov	x26, x0
  404e74:	b940abe4 	ldr	w4, [sp, #168]
  404e78:	b4000080 	cbz	x0, 404e88 <_nl_make_l10nflist+0x538>
  404e7c:	2a0403e0 	mov	w0, w4
  404e80:	f9000353 	str	x19, [x26]
  404e84:	17ffff58 	b	404be4 <_nl_make_l10nflist+0x294>
  404e88:	aa1303e0 	mov	x0, x19
  404e8c:	d280001a 	mov	x26, #0x0                   	// #0
  404e90:	94003e08 	bl	4146b0 <__free>
  404e94:	a94773fb 	ldp	x27, x28, [sp, #112]
  404e98:	17ffff88 	b	404cb8 <_nl_make_l10nflist+0x368>
  404e9c:	d280001a 	mov	x26, #0x0                   	// #0
  404ea0:	17ffff86 	b	404cb8 <_nl_make_l10nflist+0x368>

0000000000404ea4 <_nl_normalize_codeset>:
  404ea4:	a9bd7bfd 	stp	x29, x30, [sp, #-48]!
  404ea8:	910003fd 	mov	x29, sp
  404eac:	b4000861 	cbz	x1, 404fb8 <_nl_normalize_codeset+0x114>
  404eb0:	a90153f3 	stp	x19, x20, [sp, #16]
  404eb4:	aa0103f4 	mov	x20, x1
  404eb8:	aa0003e3 	mov	x3, x0
  404ebc:	a9025bf5 	stp	x21, x22, [sp, #32]
  404ec0:	f0000476 	adrp	x22, 493000 <tunable_list+0x528>
  404ec4:	912802c1 	add	x1, x22, #0xa00
  404ec8:	aa0003f5 	mov	x21, x0
  404ecc:	8b000285 	add	x5, x20, x0
  404ed0:	52800024 	mov	w4, #0x1                   	// #1
  404ed4:	d2800000 	mov	x0, #0x0                   	// #0
  404ed8:	f9403433 	ldr	x19, [x1, #104]
  404edc:	d503201f 	nop
  404ee0:	91000463 	add	x3, x3, #0x1
  404ee4:	385ff062 	ldurb	w2, [x3, #-1]
  404ee8:	5100c041 	sub	w1, w2, #0x30
  404eec:	d37f1c42 	ubfiz	x2, x2, #1, #8
  404ef0:	78626a62 	ldrh	w2, [x19, x2]
  404ef4:	36180082 	tbz	w2, #3, 404f04 <_nl_normalize_codeset+0x60>
  404ef8:	7100283f 	cmp	w1, #0xa
  404efc:	91000400 	add	x0, x0, #0x1
  404f00:	1a9f3084 	csel	w4, w4, wzr, cc  // cc = lo, ul, last
  404f04:	eb0300bf 	cmp	x5, x3
  404f08:	54fffec1 	b.ne	404ee0 <_nl_normalize_codeset+0x3c>  // b.any
  404f0c:	35000424 	cbnz	w4, 404f90 <_nl_normalize_codeset+0xec>
  404f10:	91000400 	add	x0, x0, #0x1
  404f14:	94003c87 	bl	414130 <__libc_malloc>
  404f18:	aa0003e4 	mov	x4, x0
  404f1c:	b40005a0 	cbz	x0, 404fd0 <_nl_normalize_codeset+0x12c>
  404f20:	912802d6 	add	x22, x22, #0xa00
  404f24:	d2800003 	mov	x3, #0x0                   	// #0
  404f28:	f9403ac8 	ldr	x8, [x22, #112]
  404f2c:	14000007 	b	404f48 <_nl_normalize_codeset+0xa4>
  404f30:	b8677901 	ldr	w1, [x8, x7, lsl #2]
  404f34:	380014a1 	strb	w1, [x5], #1
  404f38:	aa0503e4 	mov	x4, x5
  404f3c:	91000463 	add	x3, x3, #0x1
  404f40:	eb03029f 	cmp	x20, x3
  404f44:	540001c9 	b.ls	404f7c <_nl_normalize_codeset+0xd8>  // b.plast
  404f48:	38636aa7 	ldrb	w7, [x21, x3]
  404f4c:	aa0403e5 	mov	x5, x4
  404f50:	5100c0e1 	sub	w1, w7, #0x30
  404f54:	d37f1ce6 	ubfiz	x6, x7, #1, #8
  404f58:	78666a66 	ldrh	w6, [x19, x6]
  404f5c:	3757fea6 	tbnz	w6, #10, 404f30 <_nl_normalize_codeset+0x8c>
  404f60:	7100243f 	cmp	w1, #0x9
  404f64:	54fffec8 	b.hi	404f3c <_nl_normalize_codeset+0x98>  // b.pmore
  404f68:	380014a7 	strb	w7, [x5], #1
  404f6c:	91000463 	add	x3, x3, #0x1
  404f70:	aa0503e4 	mov	x4, x5
  404f74:	eb03029f 	cmp	x20, x3
  404f78:	54fffe88 	b.hi	404f48 <_nl_normalize_codeset+0xa4>  // b.pmore
  404f7c:	a94153f3 	ldp	x19, x20, [sp, #16]
  404f80:	a9425bf5 	ldp	x21, x22, [sp, #32]
  404f84:	3900009f 	strb	wzr, [x4]
  404f88:	a8c37bfd 	ldp	x29, x30, [sp], #48
  404f8c:	d65f03c0 	ret
  404f90:	91001000 	add	x0, x0, #0x4
  404f94:	94003c67 	bl	414130 <__libc_malloc>
  404f98:	b40001c0 	cbz	x0, 404fd0 <_nl_normalize_codeset+0x12c>
  404f9c:	aa0003e4 	mov	x4, x0
  404fa0:	912802c1 	add	x1, x22, #0xa00
  404fa4:	528e6d22 	mov	w2, #0x7369                	// #29545
  404fa8:	72a00de2 	movk	w2, #0x6f, lsl #16
  404fac:	b8003482 	str	w2, [x4], #3
  404fb0:	f9403433 	ldr	x19, [x1, #104]
  404fb4:	17ffffdb 	b	404f20 <_nl_normalize_codeset+0x7c>
  404fb8:	d2800080 	mov	x0, #0x4                   	// #4
  404fbc:	94003c5d 	bl	414130 <__libc_malloc>
  404fc0:	b5000100 	cbnz	x0, 404fe0 <_nl_normalize_codeset+0x13c>
  404fc4:	d2800000 	mov	x0, #0x0                   	// #0
  404fc8:	a8c37bfd 	ldp	x29, x30, [sp], #48
  404fcc:	d65f03c0 	ret
  404fd0:	d2800000 	mov	x0, #0x0                   	// #0
  404fd4:	a94153f3 	ldp	x19, x20, [sp, #16]
  404fd8:	a9425bf5 	ldp	x21, x22, [sp, #32]
  404fdc:	17fffffb 	b	404fc8 <_nl_normalize_codeset+0x124>
  404fe0:	aa0003e4 	mov	x4, x0
  404fe4:	528e6d21 	mov	w1, #0x7369                	// #29545
  404fe8:	72a00de1 	movk	w1, #0x6f, lsl #16
  404fec:	b8003481 	str	w1, [x4], #3
  404ff0:	17ffffe5 	b	404f84 <_nl_normalize_codeset+0xe0>
  404ff4:	d503201f 	nop
  404ff8:	d503201f 	nop
  404ffc:	d503201f 	nop

0000000000405000 <_nl_explode_name>:
  405000:	a9ba7bfd 	stp	x29, x30, [sp, #-96]!
  405004:	aa0003e7 	mov	x7, x0
  405008:	52800808 	mov	w8, #0x40                  	// #64
  40500c:	910003fd 	mov	x29, sp
  405010:	a90153f3 	stp	x19, x20, [sp, #16]
  405014:	a9025bf5 	stp	x21, x22, [sp, #32]
  405018:	aa0403f5 	mov	x21, x4
  40501c:	f900005f 	str	xzr, [x2]
  405020:	f900007f 	str	xzr, [x3]
  405024:	f900009f 	str	xzr, [x4]
  405028:	f90000bf 	str	xzr, [x5]
  40502c:	f9000020 	str	x0, [x1]
  405030:	39400006 	ldrb	w6, [x0]
  405034:	71017cdf 	cmp	w6, #0x5f
  405038:	7a4018c4 	ccmp	w6, #0x0, #0x4, ne  // ne = any
  40503c:	540000e1 	b.ne	405058 <_nl_explode_name+0x58>  // b.any
  405040:	1400002a 	b	4050e8 <_nl_explode_name+0xe8>
  405044:	394004e6 	ldrb	w6, [x7, #1]
  405048:	71017cdf 	cmp	w6, #0x5f
  40504c:	7a4018c4 	ccmp	w6, #0x0, #0x4, ne  // ne = any
  405050:	54000500 	b.eq	4050f0 <_nl_explode_name+0xf0>  // b.none
  405054:	aa0103e7 	mov	x7, x1
  405058:	7100b8df 	cmp	w6, #0x2e
  40505c:	910004e1 	add	x1, x7, #0x1
  405060:	7a4810c4 	ccmp	w6, w8, #0x4, ne  // ne = any
  405064:	54ffff01 	b.ne	405044 <_nl_explode_name+0x44>  // b.any
  405068:	eb07001f 	cmp	x0, x7
  40506c:	540003e0 	b.eq	4050e8 <_nl_explode_name+0xe8>  // b.none
  405070:	394000e6 	ldrb	w6, [x7]
  405074:	52800013 	mov	w19, #0x0                   	// #0
  405078:	7100b8df 	cmp	w6, #0x2e
  40507c:	54000660 	b.eq	405148 <_nl_explode_name+0x148>  // b.none
  405080:	710100df 	cmp	w6, #0x40
  405084:	54000101 	b.ne	4050a4 <_nl_explode_name+0xa4>  // b.any
  405088:	aa0703e0 	mov	x0, x7
  40508c:	321d0261 	orr	w1, w19, #0x8
  405090:	3800141f 	strb	wzr, [x0], #1
  405094:	f9000040 	str	x0, [x2]
  405098:	394004e0 	ldrb	w0, [x7, #1]
  40509c:	7100001f 	cmp	w0, #0x0
  4050a0:	1a931033 	csel	w19, w1, w19, ne  // ne = any
  4050a4:	f9400060 	ldr	x0, [x3]
  4050a8:	b40000a0 	cbz	x0, 4050bc <_nl_explode_name+0xbc>
  4050ac:	39400001 	ldrb	w1, [x0]
  4050b0:	121d7a60 	and	w0, w19, #0xfffffffb
  4050b4:	7100003f 	cmp	w1, #0x0
  4050b8:	1a930013 	csel	w19, w0, w19, eq  // eq = none
  4050bc:	f94002a0 	ldr	x0, [x21]
  4050c0:	b40000a0 	cbz	x0, 4050d4 <_nl_explode_name+0xd4>
  4050c4:	39400001 	ldrb	w1, [x0]
  4050c8:	121e7a60 	and	w0, w19, #0xfffffffd
  4050cc:	7100003f 	cmp	w1, #0x0
  4050d0:	1a930013 	csel	w19, w0, w19, eq  // eq = none
  4050d4:	2a1303e0 	mov	w0, w19
  4050d8:	a94153f3 	ldp	x19, x20, [sp, #16]
  4050dc:	a9425bf5 	ldp	x21, x22, [sp, #32]
  4050e0:	a8c67bfd 	ldp	x29, x30, [sp], #96
  4050e4:	d65f03c0 	ret
  4050e8:	52800013 	mov	w19, #0x0                   	// #0
  4050ec:	17ffffee 	b	4050a4 <_nl_explode_name+0xa4>
  4050f0:	eb01001f 	cmp	x0, x1
  4050f4:	54ffffa0 	b.eq	4050e8 <_nl_explode_name+0xe8>  // b.none
  4050f8:	71017cdf 	cmp	w6, #0x5f
  4050fc:	54000861 	b.ne	405208 <_nl_explode_name+0x208>  // b.any
  405100:	3900003f 	strb	wzr, [x1]
  405104:	910008e7 	add	x7, x7, #0x2
  405108:	f9000067 	str	x7, [x3]
  40510c:	39400426 	ldrb	w6, [x1, #1]
  405110:	121978c0 	and	w0, w6, #0xffffffbf
  405114:	7100b8df 	cmp	w6, #0x2e
  405118:	12001c00 	and	w0, w0, #0xff
  40511c:	7a401804 	ccmp	w0, #0x0, #0x4, ne  // ne = any
  405120:	540000e0 	b.eq	40513c <_nl_explode_name+0x13c>  // b.none
  405124:	d503201f 	nop
  405128:	38401ce6 	ldrb	w6, [x7, #1]!
  40512c:	7100b8df 	cmp	w6, #0x2e
  405130:	121978c0 	and	w0, w6, #0xffffffbf
  405134:	7a401804 	ccmp	w0, #0x0, #0x4, ne  // ne = any
  405138:	54ffff81 	b.ne	405128 <_nl_explode_name+0x128>  // b.any
  40513c:	52800093 	mov	w19, #0x4                   	// #4
  405140:	7100b8df 	cmp	w6, #0x2e
  405144:	54fff9e1 	b.ne	405080 <_nl_explode_name+0x80>  // b.any
  405148:	aa0703e0 	mov	x0, x7
  40514c:	a9036bf9 	stp	x25, x26, [sp, #48]
  405150:	528017e1 	mov	w1, #0xbf                  	// #191
  405154:	321f0279 	orr	w25, w19, #0x2
  405158:	3800141f 	strb	wzr, [x0], #1
  40515c:	f90002a0 	str	x0, [x21]
  405160:	394004e6 	ldrb	w6, [x7, #1]
  405164:	6a0100df 	tst	w6, w1
  405168:	54000360 	b.eq	4051d4 <_nl_explode_name+0x1d4>  // b.none
  40516c:	aa0003f4 	mov	x20, x0
  405170:	aa1403f6 	mov	x22, x20
  405174:	38401e84 	ldrb	w4, [x20, #1]!
  405178:	528017e1 	mov	w1, #0xbf                  	// #191
  40517c:	6a01009f 	tst	w4, w1
  405180:	54ffff81 	b.ne	405170 <_nl_explode_name+0x170>  // b.any
  405184:	f90027e5 	str	x5, [sp, #72]
  405188:	eb14001f 	cmp	x0, x20
  40518c:	54000240 	b.eq	4051d4 <_nl_explode_name+0x1d4>  // b.none
  405190:	cb0702c1 	sub	x1, x22, x7
  405194:	a9050fe2 	stp	x2, x3, [sp, #80]
  405198:	97ffff43 	bl	404ea4 <_nl_normalize_codeset>
  40519c:	f94027e5 	ldr	x5, [sp, #72]
  4051a0:	aa0003fa 	mov	x26, x0
  4051a4:	f90000a0 	str	x0, [x5]
  4051a8:	b4000360 	cbz	x0, 405214 <_nl_explode_name+0x214>
  4051ac:	aa0003e1 	mov	x1, x0
  4051b0:	f94002a0 	ldr	x0, [x21]
  4051b4:	940042c3 	bl	415cc0 <strcmp>
  4051b8:	a9450fe2 	ldp	x2, x3, [sp, #80]
  4051bc:	34000140 	cbz	w0, 4051e4 <_nl_explode_name+0x1e4>
  4051c0:	394006c6 	ldrb	w6, [x22, #1]
  4051c4:	32000673 	orr	w19, w19, #0x3
  4051c8:	aa1403e7 	mov	x7, x20
  4051cc:	a9436bf9 	ldp	x25, x26, [sp, #48]
  4051d0:	17ffffac 	b	405080 <_nl_explode_name+0x80>
  4051d4:	2a1903f3 	mov	w19, w25
  4051d8:	aa0003e7 	mov	x7, x0
  4051dc:	a9436bf9 	ldp	x25, x26, [sp, #48]
  4051e0:	17ffffa8 	b	405080 <_nl_explode_name+0x80>
  4051e4:	aa1a03e0 	mov	x0, x26
  4051e8:	a9048fe2 	stp	x2, x3, [sp, #72]
  4051ec:	94003d31 	bl	4146b0 <__free>
  4051f0:	2a1903f3 	mov	w19, w25
  4051f4:	394006c6 	ldrb	w6, [x22, #1]
  4051f8:	aa1403e7 	mov	x7, x20
  4051fc:	a9436bf9 	ldp	x25, x26, [sp, #48]
  405200:	a9448fe2 	ldp	x2, x3, [sp, #72]
  405204:	17ffff9f 	b	405080 <_nl_explode_name+0x80>
  405208:	aa0103e7 	mov	x7, x1
  40520c:	52800013 	mov	w19, #0x0                   	// #0
  405210:	17ffff9a 	b	405078 <_nl_explode_name+0x78>
  405214:	12800013 	mov	w19, #0xffffffff            	// #-1
  405218:	a9436bf9 	ldp	x25, x26, [sp, #48]
  40521c:	17ffffae 	b	4050d4 <_nl_explode_name+0xd4>

0000000000405220 <__gettext_free_exp>:
  405220:	b4000340 	cbz	x0, 405288 <__gettext_free_exp+0x68>
  405224:	a9be7bfd 	stp	x29, x30, [sp, #-32]!
  405228:	910003fd 	mov	x29, sp
  40522c:	f9000bf3 	str	x19, [sp, #16]
  405230:	aa0003f3 	mov	x19, x0
  405234:	b9400000 	ldr	w0, [x0]
  405238:	7100081f 	cmp	w0, #0x2
  40523c:	54000160 	b.eq	405268 <__gettext_free_exp+0x48>  // b.none
  405240:	71000c1f 	cmp	w0, #0x3
  405244:	540000e0 	b.eq	405260 <__gettext_free_exp+0x40>  // b.none
  405248:	7100041f 	cmp	w0, #0x1
  40524c:	54000120 	b.eq	405270 <__gettext_free_exp+0x50>  // b.none
  405250:	aa1303e0 	mov	x0, x19
  405254:	f9400bf3 	ldr	x19, [sp, #16]
  405258:	a8c27bfd 	ldp	x29, x30, [sp], #32
  40525c:	14003d15 	b	4146b0 <__free>
  405260:	f9400e60 	ldr	x0, [x19, #24]
  405264:	97ffffef 	bl	405220 <__gettext_free_exp>
  405268:	f9400a60 	ldr	x0, [x19, #16]
  40526c:	97ffffed 	bl	405220 <__gettext_free_exp>
  405270:	f9400660 	ldr	x0, [x19, #8]
  405274:	97ffffeb 	bl	405220 <__gettext_free_exp>
  405278:	aa1303e0 	mov	x0, x19
  40527c:	f9400bf3 	ldr	x19, [sp, #16]
  405280:	a8c27bfd 	ldp	x29, x30, [sp], #32
  405284:	14003d0b 	b	4146b0 <__free>
  405288:	d65f03c0 	ret
  40528c:	d503201f 	nop

0000000000405290 <__gettextparse>:
  405290:	d11f03ff 	sub	sp, sp, #0x7c0
  405294:	d0000463 	adrp	x3, 493000 <tunable_list+0x528>
  405298:	9102c3e2 	add	x2, sp, #0xb0
  40529c:	a9007bfd 	stp	x29, x30, [sp]
  4052a0:	910003fd 	mov	x29, sp
  4052a4:	f945f861 	ldr	x1, [x3, #3056]
  4052a8:	a90153f3 	stp	x19, x20, [sp, #16]
  4052ac:	52800013 	mov	w19, #0x0                   	// #0
  4052b0:	a9025bf5 	stp	x21, x22, [sp, #32]
  4052b4:	b00002b5 	adrp	x21, 45a000 <ex5_shuffle_pattern+0x7a0>
  4052b8:	910c62a4 	add	x4, x21, #0x318
  4052bc:	a90363f7 	stp	x23, x24, [sp, #48]
  4052c0:	911bc3f6 	add	x22, sp, #0x6f0
  4052c4:	91042094 	add	x20, x4, #0x108
  4052c8:	a9046bf9 	stp	x25, x26, [sp, #64]
  4052cc:	b00002b7 	adrp	x23, 45a000 <ex5_shuffle_pattern+0x7a0>
  4052d0:	12800039 	mov	w25, #0xfffffffe            	// #-2
  4052d4:	a90573fb 	stp	x27, x28, [sp, #80]
  4052d8:	aa1603fc 	mov	x28, x22
  4052dc:	d280191b 	mov	x27, #0xc8                  	// #200
  4052e0:	f90037e4 	str	x4, [sp, #104]
  4052e4:	a90803e3 	stp	x3, x0, [sp, #128]
  4052e8:	f9400020 	ldr	x0, [x1]
  4052ec:	f903dfe0 	str	x0, [sp, #1976]
  4052f0:	d2800000 	mov	x0, #0x0                   	// #0
  4052f4:	aa1603e1 	mov	x1, x22
  4052f8:	f90033e2 	str	x2, [sp, #96]
  4052fc:	b90077ff 	str	wzr, [sp, #116]
  405300:	391bc3ff 	strb	wzr, [sp, #1776]
  405304:	9113c2e0 	add	x0, x23, #0x4f0
  405308:	93407e6a 	sxtw	x10, w19
  40530c:	38f3c800 	ldrsb	w0, [x0, w19, sxtw]
  405310:	2a0003e9 	mov	w9, w0
  405314:	3100101f 	cmn	w0, #0x4
  405318:	540012c0 	b.eq	405570 <__gettextparse+0x2e0>  // b.none
  40531c:	31000b3f 	cmn	w25, #0x2
  405320:	54002180 	b.eq	405750 <__gettextparse+0x4c0>  // b.none
  405324:	7100033f 	cmp	w25, #0x0
  405328:	540020ad 	b.le	40573c <__gettextparse+0x4ac>
  40532c:	7104033f 	cmp	w25, #0x100
  405330:	54002780 	b.eq	405820 <__gettextparse+0x590>  // b.none
  405334:	f94037e3 	ldr	x3, [sp, #104]
  405338:	38f9c86c 	ldrsb	w12, [x3, w25, sxtw]
  40533c:	0b0c0009 	add	w9, w0, w12
  405340:	7100e13f 	cmp	w9, #0x38
  405344:	54001168 	b.hi	405570 <__gettextparse+0x2e0>  // b.pmore
  405348:	910c62a3 	add	x3, x21, #0x318
  40534c:	91042065 	add	x5, x3, #0x108
  405350:	38e9c8a5 	ldrsb	w5, [x5, w9, sxtw]
  405354:	6b0c00bf 	cmp	w5, w12
  405358:	540010c1 	b.ne	405570 <__gettextparse+0x2e0>  // b.any
  40535c:	91052063 	add	x3, x3, #0x148
  405360:	38e9c873 	ldrsb	w19, [x3, w9, sxtw]
  405364:	2a1303e0 	mov	w0, w19
  405368:	4b1303e3 	neg	w3, w19
  40536c:	7100027f 	cmp	w19, #0x0
  405370:	5400018d 	b.le	4053a0 <__gettextparse+0x110>
  405374:	b94077e3 	ldr	w3, [sp, #116]
  405378:	aa0103e5 	mov	x5, x1
  40537c:	91002042 	add	x2, x2, #0x8
  405380:	12800039 	mov	w25, #0xfffffffe            	// #-2
  405384:	7100007f 	cmp	w3, #0x0
  405388:	1a9f07e1 	cset	w1, ne  // ne = any
  40538c:	4b010061 	sub	w1, w3, w1
  405390:	b90077e1 	str	w1, [sp, #116]
  405394:	f9404fe1 	ldr	x1, [sp, #152]
  405398:	f9000041 	str	x1, [x2]
  40539c:	1400003c 	b	40548c <__gettextparse+0x1fc>
  4053a0:	910c62a0 	add	x0, x21, #0x318
  4053a4:	52800029 	mov	w9, #0x1                   	// #1
  4053a8:	9106a000 	add	x0, x0, #0x1a8
  4053ac:	93407c78 	sxtw	x24, w3
  4053b0:	38e3c813 	ldrsb	w19, [x0, w3, sxtw]
  4053b4:	4b130120 	sub	w0, w9, w19
  4053b8:	f860d840 	ldr	x0, [x2, w0, sxtw #3]
  4053bc:	7100207f 	cmp	w3, #0x8
  4053c0:	54001640 	b.eq	405688 <__gettextparse+0x3f8>  // b.none
  4053c4:	5400188c 	b.gt	4056d4 <__gettextparse+0x444>
  4053c8:	7100147f 	cmp	w3, #0x5
  4053cc:	540023a0 	b.eq	405840 <__gettextparse+0x5b0>  // b.none
  4053d0:	5400154c 	b.gt	405678 <__gettextparse+0x3e8>
  4053d4:	71000c7f 	cmp	w3, #0x3
  4053d8:	540025a0 	b.eq	40588c <__gettextparse+0x5fc>  // b.none
  4053dc:	7100107f 	cmp	w3, #0x4
  4053e0:	54001141 	b.ne	405608 <__gettextparse+0x378>  // b.any
  4053e4:	f85f0043 	ldur	x3, [x2, #-16]
  4053e8:	f940005a 	ldr	x26, [x2]
  4053ec:	f100007f 	cmp	x3, #0x0
  4053f0:	fa401b44 	ccmp	x26, #0x0, #0x4, ne  // ne = any
  4053f4:	54001ec0 	b.eq	4057cc <__gettextparse+0x53c>  // b.none
  4053f8:	d2800400 	mov	x0, #0x20                  	// #32
  4053fc:	f9003fe3 	str	x3, [sp, #120]
  405400:	f9004be1 	str	x1, [sp, #144]
  405404:	f90053e2 	str	x2, [sp, #160]
  405408:	94003b4a 	bl	414130 <__libc_malloc>
  40540c:	f9403fe3 	ldr	x3, [sp, #120]
  405410:	f9404be1 	ldr	x1, [sp, #144]
  405414:	f94053e2 	ldr	x2, [sp, #160]
  405418:	b4001da0 	cbz	x0, 4057cc <__gettextparse+0x53c>
  40541c:	a900e803 	stp	x3, x26, [x0, #8]
  405420:	d2800043 	mov	x3, #0x2                   	// #2
  405424:	f2c001e3 	movk	x3, #0xf, lsl #32
  405428:	f9000003 	str	x3, [x0]
  40542c:	d503201f 	nop
  405430:	910c62a9 	add	x9, x21, #0x318
  405434:	cb33cc4b 	sub	x11, x2, w19, sxtw #3
  405438:	9106e12c 	add	x12, x9, #0x1b8
  40543c:	cb338025 	sub	x5, x1, w19, sxtb
  405440:	b00002a3 	adrp	x3, 45a000 <ex5_shuffle_pattern+0x7a0>
  405444:	9113a063 	add	x3, x3, #0x4e8
  405448:	f9000560 	str	x0, [x11, #8]
  40544c:	91002162 	add	x2, x11, #0x8
  405450:	38f86981 	ldrsb	w1, [x12, x24]
  405454:	39c000aa 	ldrsb	w10, [x5]
  405458:	51004020 	sub	w0, w1, #0x10
  40545c:	38e0c861 	ldrsb	w1, [x3, w0, sxtw]
  405460:	0b0a0021 	add	w1, w1, w10
  405464:	7100e03f 	cmp	w1, #0x38
  405468:	540000a8 	b.hi	40547c <__gettextparse+0x1ec>  // b.pmore
  40546c:	91042123 	add	x3, x9, #0x108
  405470:	38e1c863 	ldrsb	w3, [x3, w1, sxtw]
  405474:	6b0a007f 	cmp	w3, w10
  405478:	540018a0 	b.eq	40578c <__gettextparse+0x4fc>  // b.none
  40547c:	910c62a1 	add	x1, x21, #0x318
  405480:	91072021 	add	x1, x1, #0x1c8
  405484:	38e0c820 	ldrsb	w0, [x1, w0, sxtw]
  405488:	2a0003f3 	mov	w19, w0
  40548c:	d1000769 	sub	x9, x27, #0x1
  405490:	910004a1 	add	x1, x5, #0x1
  405494:	8b090389 	add	x9, x28, x9
  405498:	390004a0 	strb	w0, [x5, #1]
  40549c:	eb09003f 	cmp	x1, x9
  4054a0:	54000603 	b.cc	405560 <__gettextparse+0x2d0>  // b.lo, b.ul, b.last
  4054a4:	cb1c0020 	sub	x0, x1, x28
  4054a8:	aa0003e1 	mov	x1, x0
  4054ac:	f9003fe1 	str	x1, [sp, #120]
  4054b0:	9100043a 	add	x26, x1, #0x1
  4054b4:	d284e1e0 	mov	x0, #0x270f                	// #9999
  4054b8:	eb00037f 	cmp	x27, x0
  4054bc:	540033ec 	b.gt	405b38 <__gettextparse+0x8a8>
  4054c0:	d37ffb7b 	lsl	x27, x27, #1
  4054c4:	d284e200 	mov	x0, #0x2710                	// #10000
  4054c8:	eb00037f 	cmp	x27, x0
  4054cc:	9a80d37b 	csel	x27, x27, x0, le
  4054d0:	8b1b0f60 	add	x0, x27, x27, lsl #3
  4054d4:	91001c00 	add	x0, x0, #0x7
  4054d8:	94003b16 	bl	414130 <__libc_malloc>
  4054dc:	aa0003f8 	mov	x24, x0
  4054e0:	b40032c0 	cbz	x0, 405b38 <__gettextparse+0x8a8>
  4054e4:	aa1a03e2 	mov	x2, x26
  4054e8:	aa1c03e1 	mov	x1, x28
  4054ec:	97ffeb71 	bl	4002b0 <.plt+0x10>
  4054f0:	91001f69 	add	x9, x27, #0x7
  4054f4:	d37df342 	lsl	x2, x26, #3
  4054f8:	927df129 	and	x9, x9, #0xfffffffffffffff8
  4054fc:	f94033e1 	ldr	x1, [sp, #96]
  405500:	8b090309 	add	x9, x24, x9
  405504:	aa0903e0 	mov	x0, x9
  405508:	f90033e2 	str	x2, [sp, #96]
  40550c:	97ffeb69 	bl	4002b0 <.plt+0x10>
  405510:	aa0003e9 	mov	x9, x0
  405514:	eb16039f 	cmp	x28, x22
  405518:	f94033e2 	ldr	x2, [sp, #96]
  40551c:	540000e0 	b.eq	405538 <__gettextparse+0x2a8>  // b.none
  405520:	aa1c03e0 	mov	x0, x28
  405524:	f90033e9 	str	x9, [sp, #96]
  405528:	f9004be2 	str	x2, [sp, #144]
  40552c:	94003c61 	bl	4146b0 <__free>
  405530:	f94033e9 	ldr	x9, [sp, #96]
  405534:	f9404be2 	ldr	x2, [sp, #144]
  405538:	d1000760 	sub	x0, x27, #0x1
  40553c:	f9403fe1 	ldr	x1, [sp, #120]
  405540:	d1002042 	sub	x2, x2, #0x8
  405544:	8b000300 	add	x0, x24, x0
  405548:	8b020122 	add	x2, x9, x2
  40554c:	8b010301 	add	x1, x24, x1
  405550:	eb00003f 	cmp	x1, x0
  405554:	54002ec2 	b.cs	405b2c <__gettextparse+0x89c>  // b.hs, b.nlast
  405558:	aa1803fc 	mov	x28, x24
  40555c:	f90033e9 	str	x9, [sp, #96]
  405560:	7100267f 	cmp	w19, #0x9
  405564:	54ffed01 	b.ne	405304 <__gettextparse+0x74>  // b.any
  405568:	52800013 	mov	w19, #0x0                   	// #0
  40556c:	1400002f 	b	405628 <__gettextparse+0x398>
  405570:	910c62a3 	add	x3, x21, #0x318
  405574:	91062063 	add	x3, x3, #0x188
  405578:	38ea6863 	ldrsb	w3, [x3, x10]
  40557c:	35fff123 	cbnz	w3, 4053a0 <__gettextparse+0x110>
  405580:	b94077e3 	ldr	w3, [sp, #116]
  405584:	71000c7f 	cmp	w3, #0x3
  405588:	54000081 	b.ne	405598 <__gettextparse+0x308>  // b.any
  40558c:	7100033f 	cmp	w25, #0x0
  405590:	54000dcc 	b.gt	405748 <__gettextparse+0x4b8>
  405594:	54000480 	b.eq	405624 <__gettextparse+0x394>  // b.none
  405598:	f94037e3 	ldr	x3, [sp, #104]
  40559c:	9113c2e5 	add	x5, x23, #0x4f0
  4055a0:	91052069 	add	x9, x3, #0x148
  4055a4:	14000006 	b	4055bc <__gettextparse+0x32c>
  4055a8:	eb1c003f 	cmp	x1, x28
  4055ac:	540003c0 	b.eq	405624 <__gettextparse+0x394>  // b.none
  4055b0:	38dffc20 	ldrsb	w0, [x1, #-1]!
  4055b4:	d1002042 	sub	x2, x2, #0x8
  4055b8:	38e0c8a0 	ldrsb	w0, [x5, w0, sxtw]
  4055bc:	3100101f 	cmn	w0, #0x4
  4055c0:	54ffff40 	b.eq	4055a8 <__gettextparse+0x318>  // b.none
  4055c4:	11000400 	add	w0, w0, #0x1
  4055c8:	7100e01f 	cmp	w0, #0x38
  4055cc:	54fffee8 	b.hi	4055a8 <__gettextparse+0x318>  // b.pmore
  4055d0:	38e0ca83 	ldrsb	w3, [x20, w0, sxtw]
  4055d4:	7100047f 	cmp	w3, #0x1
  4055d8:	54fffe81 	b.ne	4055a8 <__gettextparse+0x318>  // b.any
  4055dc:	38e0c920 	ldrsb	w0, [x9, w0, sxtw]
  4055e0:	2a0003f3 	mov	w19, w0
  4055e4:	7100001f 	cmp	w0, #0x0
  4055e8:	54fffe0d 	b.le	4055a8 <__gettextparse+0x318>
  4055ec:	aa0103e5 	mov	x5, x1
  4055f0:	52800061 	mov	w1, #0x3                   	// #3
  4055f4:	b90077e1 	str	w1, [sp, #116]
  4055f8:	91002042 	add	x2, x2, #0x8
  4055fc:	f9404fe1 	ldr	x1, [sp, #152]
  405600:	f9000041 	str	x1, [x2]
  405604:	17ffffa2 	b	40548c <__gettextparse+0x1fc>
  405608:	7100087f 	cmp	w3, #0x2
  40560c:	54fff121 	b.ne	405430 <__gettextparse+0x1a0>  // b.any
  405610:	f9400043 	ldr	x3, [x2]
  405614:	b4000083 	cbz	x3, 405624 <__gettextparse+0x394>
  405618:	f94047e4 	ldr	x4, [sp, #136]
  40561c:	f9000483 	str	x3, [x4, #8]
  405620:	17ffff84 	b	405430 <__gettextparse+0x1a0>
  405624:	52800033 	mov	w19, #0x1                   	// #1
  405628:	eb16039f 	cmp	x28, x22
  40562c:	54000060 	b.eq	405638 <__gettextparse+0x3a8>  // b.none
  405630:	aa1c03e0 	mov	x0, x28
  405634:	94003c1f 	bl	4146b0 <__free>
  405638:	f94043e0 	ldr	x0, [sp, #128]
  40563c:	f945f815 	ldr	x21, [x0, #3056]
  405640:	f943dfe0 	ldr	x0, [sp, #1976]
  405644:	f94002a1 	ldr	x1, [x21]
  405648:	eb010000 	subs	x0, x0, x1
  40564c:	d2800001 	mov	x1, #0x0                   	// #0
  405650:	54002941 	b.ne	405b78 <__gettextparse+0x8e8>  // b.any
  405654:	2a1303e0 	mov	w0, w19
  405658:	a9407bfd 	ldp	x29, x30, [sp]
  40565c:	a94153f3 	ldp	x19, x20, [sp, #16]
  405660:	a9425bf5 	ldp	x21, x22, [sp, #32]
  405664:	a94363f7 	ldp	x23, x24, [sp, #48]
  405668:	a9446bf9 	ldp	x25, x26, [sp, #64]
  40566c:	a94573fb 	ldp	x27, x28, [sp, #80]
  405670:	911f03ff 	add	sp, sp, #0x7c0
  405674:	d65f03c0 	ret
  405678:	7100187f 	cmp	w3, #0x6
  40567c:	54000060 	b.eq	405688 <__gettextparse+0x3f8>  // b.none
  405680:	71001c7f 	cmp	w3, #0x7
  405684:	54ffed61 	b.ne	405430 <__gettextparse+0x1a0>  // b.any
  405688:	f9400043 	ldr	x3, [x2]
  40568c:	f85f0049 	ldur	x9, [x2, #-16]
  405690:	f100007f 	cmp	x3, #0x0
  405694:	b85f805a 	ldur	w26, [x2, #-8]
  405698:	fa401924 	ccmp	x9, #0x0, #0x4, ne  // ne = any
  40569c:	54000800 	b.eq	40579c <__gettextparse+0x50c>  // b.none
  4056a0:	d2800400 	mov	x0, #0x20                  	// #32
  4056a4:	f9003fe9 	str	x9, [sp, #120]
  4056a8:	f9004be3 	str	x3, [sp, #144]
  4056ac:	a90a0be1 	stp	x1, x2, [sp, #160]
  4056b0:	94003aa0 	bl	414130 <__libc_malloc>
  4056b4:	f9403fe9 	ldr	x9, [sp, #120]
  4056b8:	f9404be3 	ldr	x3, [sp, #144]
  4056bc:	a94a0be1 	ldp	x1, x2, [sp, #160]
  4056c0:	b40006e0 	cbz	x0, 40579c <__gettextparse+0x50c>
  4056c4:	5280004b 	mov	w11, #0x2                   	// #2
  4056c8:	2900680b 	stp	w11, w26, [x0]
  4056cc:	a9008c09 	stp	x9, x3, [x0, #8]
  4056d0:	17ffff58 	b	405430 <__gettextparse+0x1a0>
  4056d4:	71002c7f 	cmp	w3, #0xb
  4056d8:	54001fc0 	b.eq	405ad0 <__gettextparse+0x840>  // b.none
  4056dc:	540000ed 	b.le	4056f8 <__gettextparse+0x468>
  4056e0:	7100307f 	cmp	w3, #0xc
  4056e4:	54001de0 	b.eq	405aa0 <__gettextparse+0x810>  // b.none
  4056e8:	7100347f 	cmp	w3, #0xd
  4056ec:	54ffea21 	b.ne	405430 <__gettextparse+0x1a0>  // b.any
  4056f0:	f85f8040 	ldur	x0, [x2, #-8]
  4056f4:	17ffff4f 	b	405430 <__gettextparse+0x1a0>
  4056f8:	7100247f 	cmp	w3, #0x9
  4056fc:	54fffc60 	b.eq	405688 <__gettextparse+0x3f8>  // b.none
  405700:	7100287f 	cmp	w3, #0xa
  405704:	54ffe961 	b.ne	405430 <__gettextparse+0x1a0>  // b.any
  405708:	f940005a 	ldr	x26, [x2]
  40570c:	b400129a 	cbz	x26, 40595c <__gettextparse+0x6cc>
  405710:	d2800400 	mov	x0, #0x20                  	// #32
  405714:	f9003fe1 	str	x1, [sp, #120]
  405718:	f9004be2 	str	x2, [sp, #144]
  40571c:	94003a85 	bl	414130 <__libc_malloc>
  405720:	f9403fe1 	ldr	x1, [sp, #120]
  405724:	f9404be2 	ldr	x2, [sp, #144]
  405728:	b40011a0 	cbz	x0, 40595c <__gettextparse+0x6cc>
  40572c:	d2800023 	mov	x3, #0x1                   	// #1
  405730:	f2c00043 	movk	x3, #0x2, lsl #32
  405734:	a9006803 	stp	x3, x26, [x0]
  405738:	17ffff3e 	b	405430 <__gettextparse+0x1a0>
  40573c:	5280000c 	mov	w12, #0x0                   	// #0
  405740:	52800019 	mov	w25, #0x0                   	// #0
  405744:	17fffeff 	b	405340 <__gettextparse+0xb0>
  405748:	12800039 	mov	w25, #0xfffffffe            	// #-2
  40574c:	17ffff93 	b	405598 <__gettextparse+0x308>
  405750:	f94047e3 	ldr	x3, [sp, #136]
  405754:	f9400065 	ldr	x5, [x3]
  405758:	14000006 	b	405770 <__gettextparse+0x4e0>
  40575c:	7100807f 	cmp	w3, #0x20
  405760:	aa0503eb 	mov	x11, x5
  405764:	7a491864 	ccmp	w3, #0x9, #0x4, ne  // ne = any
  405768:	910004a5 	add	x5, x5, #0x1
  40576c:	54000481 	b.ne	4057fc <__gettextparse+0x56c>  // b.any
  405770:	394000a3 	ldrb	w3, [x5]
  405774:	35ffff43 	cbnz	w3, 40575c <__gettextparse+0x4cc>
  405778:	f94047e3 	ldr	x3, [sp, #136]
  40577c:	5280000c 	mov	w12, #0x0                   	// #0
  405780:	52800019 	mov	w25, #0x0                   	// #0
  405784:	f9000065 	str	x5, [x3]
  405788:	17fffeee 	b	405340 <__gettextparse+0xb0>
  40578c:	91052129 	add	x9, x9, #0x148
  405790:	38e1c920 	ldrsb	w0, [x9, w1, sxtw]
  405794:	2a0003f3 	mov	w19, w0
  405798:	17ffff3d 	b	40548c <__gettextparse+0x1fc>
  40579c:	aa0303e0 	mov	x0, x3
  4057a0:	f9003fe9 	str	x9, [sp, #120]
  4057a4:	f9004be1 	str	x1, [sp, #144]
  4057a8:	f90053e2 	str	x2, [sp, #160]
  4057ac:	97fffe9d 	bl	405220 <__gettext_free_exp>
  4057b0:	f9403fe9 	ldr	x9, [sp, #120]
  4057b4:	aa0903e0 	mov	x0, x9
  4057b8:	97fffe9a 	bl	405220 <__gettext_free_exp>
  4057bc:	d2800000 	mov	x0, #0x0                   	// #0
  4057c0:	f9404be1 	ldr	x1, [sp, #144]
  4057c4:	f94053e2 	ldr	x2, [sp, #160]
  4057c8:	17ffff1a 	b	405430 <__gettextparse+0x1a0>
  4057cc:	aa1a03e0 	mov	x0, x26
  4057d0:	f9003fe3 	str	x3, [sp, #120]
  4057d4:	f9004be1 	str	x1, [sp, #144]
  4057d8:	f90053e2 	str	x2, [sp, #160]
  4057dc:	97fffe91 	bl	405220 <__gettext_free_exp>
  4057e0:	f9403fe3 	ldr	x3, [sp, #120]
  4057e4:	aa0303e0 	mov	x0, x3
  4057e8:	97fffe8e 	bl	405220 <__gettext_free_exp>
  4057ec:	d2800000 	mov	x0, #0x0                   	// #0
  4057f0:	f9404be1 	ldr	x1, [sp, #144]
  4057f4:	f94053e2 	ldr	x2, [sp, #160]
  4057f8:	17ffff0e 	b	405430 <__gettextparse+0x1a0>
  4057fc:	5100286c 	sub	w12, w3, #0xa
  405800:	2a0303f9 	mov	w25, w3
  405804:	7101c99f 	cmp	w12, #0x72
  405808:	54000109 	b.ls	405828 <__gettextparse+0x598>  // b.plast
  40580c:	f94047e3 	ldr	x3, [sp, #136]
  405810:	5280004c 	mov	w12, #0x2                   	// #2
  405814:	52802039 	mov	w25, #0x101                 	// #257
  405818:	f9000065 	str	x5, [x3]
  40581c:	17fffec8 	b	40533c <__gettextparse+0xac>
  405820:	52802039 	mov	w25, #0x101                 	// #257
  405824:	17ffff5d 	b	405598 <__gettextparse+0x308>
  405828:	b00002ad 	adrp	x13, 45a000 <ex5_shuffle_pattern+0x7a0>
  40582c:	9108c1ad 	add	x13, x13, #0x230
  405830:	786c59ad 	ldrh	w13, [x13, w12, uxtw #1]
  405834:	1000006c 	adr	x12, 405840 <__gettextparse+0x5b0>
  405838:	8b2da98d 	add	x13, x12, w13, sxth #2
  40583c:	d61f01a0 	br	x13
  405840:	f85f0043 	ldur	x3, [x2, #-16]
  405844:	f940005a 	ldr	x26, [x2]
  405848:	f100007f 	cmp	x3, #0x0
  40584c:	fa401b44 	ccmp	x26, #0x0, #0x4, ne  // ne = any
  405850:	54fffbe0 	b.eq	4057cc <__gettextparse+0x53c>  // b.none
  405854:	d2800400 	mov	x0, #0x20                  	// #32
  405858:	f9003fe3 	str	x3, [sp, #120]
  40585c:	f9004be1 	str	x1, [sp, #144]
  405860:	f90053e2 	str	x2, [sp, #160]
  405864:	94003a33 	bl	414130 <__libc_malloc>
  405868:	f9403fe3 	ldr	x3, [sp, #120]
  40586c:	f9404be1 	ldr	x1, [sp, #144]
  405870:	f94053e2 	ldr	x2, [sp, #160]
  405874:	b4fffac0 	cbz	x0, 4057cc <__gettextparse+0x53c>
  405878:	a900e803 	stp	x3, x26, [x0, #8]
  40587c:	d2800043 	mov	x3, #0x2                   	// #2
  405880:	f2c001c3 	movk	x3, #0xe, lsl #32
  405884:	f9000003 	str	x3, [x0]
  405888:	17fffeea 	b	405430 <__gettextparse+0x1a0>
  40588c:	f85f0043 	ldur	x3, [x2, #-16]
  405890:	f940005a 	ldr	x26, [x2]
  405894:	f100007f 	cmp	x3, #0x0
  405898:	f85e0049 	ldur	x9, [x2, #-32]
  40589c:	fa401b44 	ccmp	x26, #0x0, #0x4, ne  // ne = any
  4058a0:	fa401924 	ccmp	x9, #0x0, #0x4, ne  // ne = any
  4058a4:	54001280 	b.eq	405af4 <__gettextparse+0x864>  // b.none
  4058a8:	d2800400 	mov	x0, #0x20                  	// #32
  4058ac:	f9003fe9 	str	x9, [sp, #120]
  4058b0:	f9004be3 	str	x3, [sp, #144]
  4058b4:	a90a0be1 	stp	x1, x2, [sp, #160]
  4058b8:	94003a1e 	bl	414130 <__libc_malloc>
  4058bc:	f9403fe9 	ldr	x9, [sp, #120]
  4058c0:	f9404be3 	ldr	x3, [sp, #144]
  4058c4:	a94a0be1 	ldp	x1, x2, [sp, #160]
  4058c8:	b4001160 	cbz	x0, 405af4 <__gettextparse+0x864>
  4058cc:	a9008c09 	stp	x9, x3, [x0, #8]
  4058d0:	d2800069 	mov	x9, #0x3                   	// #3
  4058d4:	f2c00209 	movk	x9, #0x10, lsl #32
  4058d8:	f9000009 	str	x9, [x0]
  4058dc:	f9000c1a 	str	x26, [x0, #24]
  4058e0:	17fffed4 	b	405430 <__gettextparse+0x1a0>
  4058e4:	39400569 	ldrb	w9, [x11, #1]
  4058e8:	5100c063 	sub	w3, w3, #0x30
  4058ec:	5100c128 	sub	w8, w9, #0x30
  4058f0:	93407c63 	sxtw	x3, w3
  4058f4:	12001d09 	and	w9, w8, #0xff
  4058f8:	7100253f 	cmp	w9, #0x9
  4058fc:	54000128 	b.hi	405920 <__gettextparse+0x690>  // b.pmore
  405900:	38401ca9 	ldrb	w9, [x5, #1]!
  405904:	93407d0b 	sxtw	x11, w8
  405908:	8b030863 	add	x3, x3, x3, lsl #2
  40590c:	5100c128 	sub	w8, w9, #0x30
  405910:	12001d09 	and	w9, w8, #0xff
  405914:	8b030563 	add	x3, x11, x3, lsl #1
  405918:	7100253f 	cmp	w9, #0x9
  40591c:	54ffff29 	b.ls	405900 <__gettextparse+0x670>  // b.plast
  405920:	f9004fe3 	str	x3, [sp, #152]
  405924:	5280016c 	mov	w12, #0xb                   	// #11
  405928:	f94047e3 	ldr	x3, [sp, #136]
  40592c:	528020d9 	mov	w25, #0x106                 	// #262
  405930:	f9000065 	str	x5, [x3]
  405934:	17fffe82 	b	40533c <__gettextparse+0xac>
  405938:	39400569 	ldrb	w9, [x11, #1]
  40593c:	6b03013f 	cmp	w9, w3
  405940:	54fff661 	b.ne	40580c <__gettextparse+0x57c>  // b.any
  405944:	91000965 	add	x5, x11, #0x2
  405948:	f94037e4 	ldr	x4, [sp, #104]
  40594c:	38e3c88c 	ldrsb	w12, [x4, w3, sxtw]
  405950:	f94047e3 	ldr	x3, [sp, #136]
  405954:	f9000065 	str	x5, [x3]
  405958:	17fffe79 	b	40533c <__gettextparse+0xac>
  40595c:	aa1a03e0 	mov	x0, x26
  405960:	f9003fe1 	str	x1, [sp, #120]
  405964:	f9004be2 	str	x2, [sp, #144]
  405968:	97fffe2e 	bl	405220 <__gettext_free_exp>
  40596c:	d2800000 	mov	x0, #0x0                   	// #0
  405970:	f9403fe1 	ldr	x1, [sp, #120]
  405974:	f9404be2 	ldr	x2, [sp, #144]
  405978:	17fffeae 	b	405430 <__gettextparse+0x1a0>
  40597c:	f94047e3 	ldr	x3, [sp, #136]
  405980:	5280000c 	mov	w12, #0x0                   	// #0
  405984:	52800019 	mov	w25, #0x0                   	// #0
  405988:	f900006b 	str	x11, [x3]
  40598c:	17fffe6d 	b	405340 <__gettextparse+0xb0>
  405990:	d28000a3 	mov	x3, #0x5                   	// #5
  405994:	f9404fe4 	ldr	x4, [sp, #152]
  405998:	5280014c 	mov	w12, #0xa                   	// #10
  40599c:	528020b9 	mov	w25, #0x105                 	// #261
  4059a0:	b3407c64 	bfxil	x4, x3, #0, #32
  4059a4:	f9004fe4 	str	x4, [sp, #152]
  4059a8:	f94047e3 	ldr	x3, [sp, #136]
  4059ac:	f9000065 	str	x5, [x3]
  4059b0:	17fffe63 	b	40533c <__gettextparse+0xac>
  4059b4:	d2800083 	mov	x3, #0x4                   	// #4
  4059b8:	17fffff7 	b	405994 <__gettextparse+0x704>
  4059bc:	d2800063 	mov	x3, #0x3                   	// #3
  4059c0:	17fffff5 	b	405994 <__gettextparse+0x704>
  4059c4:	39400563 	ldrb	w3, [x11, #1]
  4059c8:	7100f47f 	cmp	w3, #0x3d
  4059cc:	54000d20 	b.eq	405b70 <__gettextparse+0x8e0>  // b.none
  4059d0:	f94047e3 	ldr	x3, [sp, #136]
  4059d4:	528000cc 	mov	w12, #0x6                   	// #6
  4059d8:	52800439 	mov	w25, #0x21                  	// #33
  4059dc:	f9000065 	str	x5, [x3]
  4059e0:	17fffe57 	b	40533c <__gettextparse+0xac>
  4059e4:	d28000e3 	mov	x3, #0x7                   	// #7
  4059e8:	f9404fe4 	ldr	x4, [sp, #152]
  4059ec:	5280012c 	mov	w12, #0x9                   	// #9
  4059f0:	52802099 	mov	w25, #0x104                 	// #260
  4059f4:	b3407c64 	bfxil	x4, x3, #0, #32
  4059f8:	f9004fe4 	str	x4, [sp, #152]
  4059fc:	f94047e3 	ldr	x3, [sp, #136]
  405a00:	f9000065 	str	x5, [x3]
  405a04:	17fffe4e 	b	40533c <__gettextparse+0xac>
  405a08:	d28000c3 	mov	x3, #0x6                   	// #6
  405a0c:	17fffff7 	b	4059e8 <__gettextparse+0x758>
  405a10:	39400563 	ldrb	w3, [x11, #1]
  405a14:	7100f47f 	cmp	w3, #0x3d
  405a18:	54000a80 	b.eq	405b68 <__gettextparse+0x8d8>  // b.none
  405a1c:	f9404fe4 	ldr	x4, [sp, #152]
  405a20:	d2800123 	mov	x3, #0x9                   	// #9
  405a24:	5280010c 	mov	w12, #0x8                   	// #8
  405a28:	52802079 	mov	w25, #0x103                 	// #259
  405a2c:	b3407c64 	bfxil	x4, x3, #0, #32
  405a30:	f9004fe4 	str	x4, [sp, #152]
  405a34:	f94047e3 	ldr	x3, [sp, #136]
  405a38:	f9000065 	str	x5, [x3]
  405a3c:	17fffe40 	b	40533c <__gettextparse+0xac>
  405a40:	39400563 	ldrb	w3, [x11, #1]
  405a44:	7100f47f 	cmp	w3, #0x3d
  405a48:	54ffee21 	b.ne	40580c <__gettextparse+0x57c>  // b.any
  405a4c:	d2800183 	mov	x3, #0xc                   	// #12
  405a50:	f9404fe4 	ldr	x4, [sp, #152]
  405a54:	9100096b 	add	x11, x11, #0x2
  405a58:	528000ec 	mov	w12, #0x7                   	// #7
  405a5c:	52802059 	mov	w25, #0x102                 	// #258
  405a60:	b3407c64 	bfxil	x4, x3, #0, #32
  405a64:	f9004fe4 	str	x4, [sp, #152]
  405a68:	f94047e3 	ldr	x3, [sp, #136]
  405a6c:	f900006b 	str	x11, [x3]
  405a70:	17fffe33 	b	40533c <__gettextparse+0xac>
  405a74:	39400563 	ldrb	w3, [x11, #1]
  405a78:	7100f47f 	cmp	w3, #0x3d
  405a7c:	54000620 	b.eq	405b40 <__gettextparse+0x8b0>  // b.none
  405a80:	f9404fe3 	ldr	x3, [sp, #152]
  405a84:	d280010c 	mov	x12, #0x8                   	// #8
  405a88:	52802079 	mov	w25, #0x103                 	// #259
  405a8c:	b3407d83 	bfxil	x3, x12, #0, #32
  405a90:	f9004fe3 	str	x3, [sp, #152]
  405a94:	f94047e3 	ldr	x3, [sp, #136]
  405a98:	f9000065 	str	x5, [x3]
  405a9c:	17fffe28 	b	40533c <__gettextparse+0xac>
  405aa0:	d2800400 	mov	x0, #0x20                  	// #32
  405aa4:	f9003fe1 	str	x1, [sp, #120]
  405aa8:	f9004be2 	str	x2, [sp, #144]
  405aac:	940039a1 	bl	414130 <__libc_malloc>
  405ab0:	f9403fe1 	ldr	x1, [sp, #120]
  405ab4:	f9404be2 	ldr	x2, [sp, #144]
  405ab8:	b4ffcbc0 	cbz	x0, 405430 <__gettextparse+0x1a0>
  405abc:	f9400043 	ldr	x3, [x2]
  405ac0:	f9000403 	str	x3, [x0, #8]
  405ac4:	d2c00023 	mov	x3, #0x100000000           	// #4294967296
  405ac8:	f9000003 	str	x3, [x0]
  405acc:	17fffe59 	b	405430 <__gettextparse+0x1a0>
  405ad0:	d2800400 	mov	x0, #0x20                  	// #32
  405ad4:	f9003fe1 	str	x1, [sp, #120]
  405ad8:	f9004be2 	str	x2, [sp, #144]
  405adc:	94003995 	bl	414130 <__libc_malloc>
  405ae0:	f9403fe1 	ldr	x1, [sp, #120]
  405ae4:	f9404be2 	ldr	x2, [sp, #144]
  405ae8:	b4ffca40 	cbz	x0, 405430 <__gettextparse+0x1a0>
  405aec:	f900001f 	str	xzr, [x0]
  405af0:	17fffe50 	b	405430 <__gettextparse+0x1a0>
  405af4:	aa1a03e0 	mov	x0, x26
  405af8:	f9003fe9 	str	x9, [sp, #120]
  405afc:	f9004be3 	str	x3, [sp, #144]
