
build/dr4_at:     file format elf64-littleaarch64

Sections:
Idx Name          Size      VMA               LMA               File off  Algn
  0 .text         0000083c  00000000004000b0  00000000004000b0  000000b0  2**2
                  CONTENTS, ALLOC, LOAD, READONLY, CODE
  1 .rodata       0000017d  00000000004008ec  00000000004008ec  000008ec  2**0
                  CONTENTS, ALLOC, LOAD, READONLY, DATA
  2 .data         00000070  0000000000410a70  0000000000410a70  00000a70  2**4
                  CONTENTS, ALLOC, LOAD, DATA
  3 .bss          000000d0  0000000000410ae0  0000000000410ae0  00000ae0  2**4
                  ALLOC
  4 .debug_aranges 00000090  0000000000000000  0000000000000000  00000ae0  2**4
                  CONTENTS, READONLY, DEBUGGING, OCTETS
  5 .debug_info   0000008a  0000000000000000  0000000000000000  00000b70  2**0
                  CONTENTS, READONLY, DEBUGGING, OCTETS
  6 .debug_abbrev 0000003c  0000000000000000  0000000000000000  00000bfa  2**0
                  CONTENTS, READONLY, DEBUGGING, OCTETS
  7 .debug_line   0000021a  0000000000000000  0000000000000000  00000c36  2**0
                  CONTENTS, READONLY, DEBUGGING, OCTETS
  8 .debug_str    00000075  0000000000000000  0000000000000000  00000e50  2**0
                  CONTENTS, READONLY, DEBUGGING, OCTETS
SYMBOL TABLE:
00000000004000b0 l    d  .text	0000000000000000 .text
00000000004008ec l    d  .rodata	0000000000000000 .rodata
0000000000410a70 l    d  .data	0000000000000000 .data
0000000000410ae0 l    d  .bss	0000000000000000 .bss
0000000000000000 l    d  .debug_aranges	0000000000000000 .debug_aranges
0000000000000000 l    d  .debug_info	0000000000000000 .debug_info
0000000000000000 l    d  .debug_abbrev	0000000000000000 .debug_abbrev
0000000000000000 l    d  .debug_line	0000000000000000 .debug_line
0000000000000000 l    d  .debug_str	0000000000000000 .debug_str
0000000000000000 l    df *ABS*	0000000000000000 main.o
0000000000400a65 l       .rodata	0000000000000000 expected_sum_ascii
00000000004008ec l       .rodata	0000000000000000 msg_header
0000000000000023 l       *ABS*	0000000000000000 msg_header_len
000000000040090f l       .rodata	0000000000000000 msg_values
0000000000000029 l       *ABS*	0000000000000000 msg_values_len
0000000000400938 l       .rodata	0000000000000000 msg_status
0000000000000038 l       *ABS*	0000000000000000 msg_status_len
0000000000400970 l       .rodata	0000000000000000 msg_valid_count
0000000000000012 l       *ABS*	0000000000000000 msg_valid_count_len
0000000000400a61 l       .rodata	0000000000000000 msg_newline
0000000000000001 l       *ABS*	0000000000000000 msg_newline_len
0000000000400982 l       .rodata	0000000000000000 msg_valid_sum
000000000000000e l       *ABS*	0000000000000000 msg_valid_sum_len
0000000000400990 l       .rodata	0000000000000000 msg_valid_avg
000000000000000f l       *ABS*	0000000000000000 msg_valid_avg_len
000000000040099f l       .rodata	0000000000000000 msg_alarm_count
0000000000000010 l       *ABS*	0000000000000000 msg_alarm_count_len
00000000004009af l       .rodata	0000000000000000 msg_battery_count
000000000000000f l       *ABS*	0000000000000000 msg_battery_count_len
00000000004009be l       .rodata	0000000000000000 msg_status_word
0000000000000010 l       *ABS*	0000000000000000 msg_status_word_len
00000000004009ce l       .rodata	0000000000000000 msg_status_rotl
0000000000000010 l       *ABS*	0000000000000000 msg_status_rotl_len
00000000004009de l       .rodata	0000000000000000 msg_status_signature
0000000000000013 l       *ABS*	0000000000000000 msg_status_signature_len
00000000004009f1 l       .rodata	0000000000000000 msg_lut_values
000000000000000d l       *ABS*	0000000000000000 msg_lut_values_len
0000000000400a62 l       .rodata	0000000000000000 msg_space
0000000000000001 l       *ABS*	0000000000000000 msg_space_len
00000000004009fe l       .rodata	0000000000000000 msg_lut_sum
0000000000000012 l       *ABS*	0000000000000000 msg_lut_sum_len
0000000000400a10 l       .rodata	0000000000000000 msg_neon_sum
000000000000000c l       *ABS*	0000000000000000 msg_neon_sum_len
0000000000400a1c l       .rodata	0000000000000000 msg_norm
000000000000002a l       *ABS*	0000000000000000 msg_norm_len
0000000000400a46 l       .rodata	0000000000000000 msg_numeric_validation
0000000000000014 l       *ABS*	0000000000000000 msg_numeric_validation_len
0000000000400a5a l       .rodata	0000000000000000 msg_ok
0000000000000002 l       *ABS*	0000000000000000 msg_ok_len
0000000000400a5c l       .rodata	0000000000000000 msg_fail
0000000000000005 l       *ABS*	0000000000000000 msg_fail_len
0000000000410ae0 l       .bss	0000000000000000 num_buffer
0000000000400a63 l       .rodata	0000000000000000 msg_hex_prefix
0000000000000002 l       *ABS*	0000000000000000 msg_hex_prefix_len
0000000000410b00 l       .bss	0000000000000000 hex_buffer
0000000000000000 l    df *ABS*	0000000000000000 processamento.o
0000000000410aa0 l       .data	0000000000000000 lut_values
0000000000410ac0 l       .data	0000000000000000 lut_first4_f32
0000000000410ad0 l       .data	0000000000000000 f32_divisor_1000
0000000000000000 l    df *ABS*	0000000000000000 conversao.o
0000000000410b58 g       .bss	0000000000000000 status_rotl_result
0000000000410ba0 g       .bss	0000000000000000 normalized_values
0000000000410b40 g       .bss	0000000000000000 battery_count_result
0000000000410b80 g       .bss	0000000000000000 lut_output_values
0000000000410bb0 g       .bss	0000000000000000 _bss_end__
00000000004004f8 g     F .text	0000000000000058 print_hex16
0000000000410b50 g       .bss	0000000000000000 status_word_result
0000000000410a70 g       .data	0000000000000000 values
0000000000410b28 g       .bss	0000000000000000 valid_sum_result
0000000000410ae0 g       .bss	0000000000000000 __bss_start__
0000000000410b78 g       .bss	0000000000000000 neon_sum4_result
000000000040086c g     F .text	0000000000000080 parse_u64_checked
0000000000400734 g     F .text	000000000000002c normalize_lut_f32_neon
000000000040075c g       .text	0000000000000000 neon_float_done
0000000000410bb0 g       .bss	0000000000000000 __bss_end__
0000000000410b70 g       .bss	0000000000000000 lut_sum_result
0000000000400688 g       .text	0000000000000000 metrics_done
00000000004000b0 g     F .text	0000000000000410 _start
0000000000400730 g       .text	0000000000000000 neon_int_done
000000000040070c g       .text	0000000000000000 lut_done
0000000000410b68 g       .bss	0000000000000000 lut_count_result
0000000000400760 g     F .text	0000000000000018 strlen_ascii
00000000004004c0 g     F .text	0000000000000038 print_u64
0000000000410ae0 g       .bss	0000000000000000 __bss_start
0000000000410b20 g       .bss	0000000000000000 valid_count_result
0000000000410b60 g       .bss	0000000000000000 status_signature_result
0000000000410bb0 g       .bss	0000000000000000 __end__
0000000000410b30 g       .bss	0000000000000000 valid_avg_result
000000000040068c g     F .text	0000000000000084 convert_valid_values_lut
0000000000410b48 g       .bss	0000000000000000 invalid_count_result
0000000000410ae0 g       .data	0000000000000000 _edata
0000000000410bb0 g       .bss	0000000000000000 _end
0000000000410b38 g       .bss	0000000000000000 alarm_count_result
0000000000400710 g     F .text	0000000000000024 sum_first_four_neon
0000000000400810 g     F .text	000000000000005c u64_to_hex_fixed
0000000000400550 g     F .text	000000000000013c process_metrics
0000000000400778 g     F .text	0000000000000098 u64_to_ascii
0000000000410a90 g       .data	0000000000000000 status



Disassembly of section .text:

00000000004000b0 <_start>:
  4000b0:	94000128 	bl	400550 <process_metrics>
  4000b4:	94000176 	bl	40068c <convert_valid_values_lut>
  4000b8:	94000196 	bl	400710 <sum_first_four_neon>
  4000bc:	9400019e 	bl	400734 <normalize_lut_f32_neon>
  4000c0:	90000000 	adrp	x0, 400000 <msg_status_len+0x3fffc8>
  4000c4:	91299400 	add	x0, x0, #0xa65
  4000c8:	d2807d01 	mov	x1, #0x3e8                 	// #1000
  4000cc:	940001e8 	bl	40086c <parse_u64_checked>
  4000d0:	b40000e0 	cbz	x0, 4000ec <_start+0x3c>
  4000d4:	90000082 	adrp	x2, 410000 <expected_sum_ascii+0xf59b>
  4000d8:	912ca042 	add	x2, x2, #0xb28
  4000dc:	f9400042 	ldr	x2, [x2]
  4000e0:	eb02003f 	cmp	x1, x2
  4000e4:	9a9f17f3 	cset	x19, eq  // eq = none
  4000e8:	14000002 	b	4000f0 <_start+0x40>
  4000ec:	d2800013 	mov	x19, #0x0                   	// #0
  4000f0:	d2800020 	mov	x0, #0x1                   	// #1
  4000f4:	90000001 	adrp	x1, 400000 <msg_status_len+0x3fffc8>
  4000f8:	9123b021 	add	x1, x1, #0x8ec
  4000fc:	d2800462 	mov	x2, #0x23                  	// #35
  400100:	d2800808 	mov	x8, #0x40                  	// #64
  400104:	d4000001 	svc	#0x0
  400108:	d2800020 	mov	x0, #0x1                   	// #1
  40010c:	90000001 	adrp	x1, 400000 <msg_status_len+0x3fffc8>
  400110:	91243c21 	add	x1, x1, #0x90f
  400114:	d2800522 	mov	x2, #0x29                  	// #41
  400118:	d2800808 	mov	x8, #0x40                  	// #64
  40011c:	d4000001 	svc	#0x0
  400120:	d2800020 	mov	x0, #0x1                   	// #1
  400124:	90000001 	adrp	x1, 400000 <msg_status_len+0x3fffc8>
  400128:	9124e021 	add	x1, x1, #0x938
  40012c:	d2800702 	mov	x2, #0x38                  	// #56
  400130:	d2800808 	mov	x8, #0x40                  	// #64
  400134:	d4000001 	svc	#0x0
  400138:	d2800020 	mov	x0, #0x1                   	// #1
  40013c:	90000001 	adrp	x1, 400000 <msg_status_len+0x3fffc8>
  400140:	9125c021 	add	x1, x1, #0x970
  400144:	d2800242 	mov	x2, #0x12                  	// #18
  400148:	d2800808 	mov	x8, #0x40                  	// #64
  40014c:	d4000001 	svc	#0x0
  400150:	90000080 	adrp	x0, 410000 <expected_sum_ascii+0xf59b>
  400154:	912c8000 	add	x0, x0, #0xb20
  400158:	f9400000 	ldr	x0, [x0]
  40015c:	940000d9 	bl	4004c0 <print_u64>
  400160:	d2800020 	mov	x0, #0x1                   	// #1
  400164:	90000001 	adrp	x1, 400000 <msg_status_len+0x3fffc8>
  400168:	91298421 	add	x1, x1, #0xa61
  40016c:	d2800022 	mov	x2, #0x1                   	// #1
  400170:	d2800808 	mov	x8, #0x40                  	// #64
  400174:	d4000001 	svc	#0x0
  400178:	d2800020 	mov	x0, #0x1                   	// #1
  40017c:	90000001 	adrp	x1, 400000 <msg_status_len+0x3fffc8>
  400180:	91260821 	add	x1, x1, #0x982
  400184:	d28001c2 	mov	x2, #0xe                   	// #14
  400188:	d2800808 	mov	x8, #0x40                  	// #64
  40018c:	d4000001 	svc	#0x0
  400190:	90000080 	adrp	x0, 410000 <expected_sum_ascii+0xf59b>
  400194:	912ca000 	add	x0, x0, #0xb28
  400198:	f9400000 	ldr	x0, [x0]
  40019c:	940000c9 	bl	4004c0 <print_u64>
  4001a0:	d2800020 	mov	x0, #0x1                   	// #1
  4001a4:	90000001 	adrp	x1, 400000 <msg_status_len+0x3fffc8>
  4001a8:	91298421 	add	x1, x1, #0xa61
  4001ac:	d2800022 	mov	x2, #0x1                   	// #1
  4001b0:	d2800808 	mov	x8, #0x40                  	// #64
  4001b4:	d4000001 	svc	#0x0
  4001b8:	d2800020 	mov	x0, #0x1                   	// #1
  4001bc:	90000001 	adrp	x1, 400000 <msg_status_len+0x3fffc8>
  4001c0:	91264021 	add	x1, x1, #0x990
  4001c4:	d28001e2 	mov	x2, #0xf                   	// #15
  4001c8:	d2800808 	mov	x8, #0x40                  	// #64
  4001cc:	d4000001 	svc	#0x0
  4001d0:	90000080 	adrp	x0, 410000 <expected_sum_ascii+0xf59b>
  4001d4:	912cc000 	add	x0, x0, #0xb30
  4001d8:	f9400000 	ldr	x0, [x0]
  4001dc:	940000b9 	bl	4004c0 <print_u64>
  4001e0:	d2800020 	mov	x0, #0x1                   	// #1
  4001e4:	90000001 	adrp	x1, 400000 <msg_status_len+0x3fffc8>
  4001e8:	91298421 	add	x1, x1, #0xa61
  4001ec:	d2800022 	mov	x2, #0x1                   	// #1
  4001f0:	d2800808 	mov	x8, #0x40                  	// #64
  4001f4:	d4000001 	svc	#0x0
  4001f8:	d2800020 	mov	x0, #0x1                   	// #1
  4001fc:	90000001 	adrp	x1, 400000 <msg_status_len+0x3fffc8>
  400200:	91267c21 	add	x1, x1, #0x99f
  400204:	d2800202 	mov	x2, #0x10                  	// #16
  400208:	d2800808 	mov	x8, #0x40                  	// #64
  40020c:	d4000001 	svc	#0x0
  400210:	90000080 	adrp	x0, 410000 <expected_sum_ascii+0xf59b>
  400214:	912ce000 	add	x0, x0, #0xb38
  400218:	f9400000 	ldr	x0, [x0]
  40021c:	940000a9 	bl	4004c0 <print_u64>
  400220:	d2800020 	mov	x0, #0x1                   	// #1
  400224:	90000001 	adrp	x1, 400000 <msg_status_len+0x3fffc8>
  400228:	91298421 	add	x1, x1, #0xa61
  40022c:	d2800022 	mov	x2, #0x1                   	// #1
  400230:	d2800808 	mov	x8, #0x40                  	// #64
  400234:	d4000001 	svc	#0x0
  400238:	d2800020 	mov	x0, #0x1                   	// #1
  40023c:	90000001 	adrp	x1, 400000 <msg_status_len+0x3fffc8>
  400240:	9126bc21 	add	x1, x1, #0x9af
  400244:	d28001e2 	mov	x2, #0xf                   	// #15
  400248:	d2800808 	mov	x8, #0x40                  	// #64
  40024c:	d4000001 	svc	#0x0
  400250:	90000080 	adrp	x0, 410000 <expected_sum_ascii+0xf59b>
  400254:	912d0000 	add	x0, x0, #0xb40
  400258:	f9400000 	ldr	x0, [x0]
  40025c:	94000099 	bl	4004c0 <print_u64>
  400260:	d2800020 	mov	x0, #0x1                   	// #1
  400264:	90000001 	adrp	x1, 400000 <msg_status_len+0x3fffc8>
  400268:	91298421 	add	x1, x1, #0xa61
  40026c:	d2800022 	mov	x2, #0x1                   	// #1
  400270:	d2800808 	mov	x8, #0x40                  	// #64
  400274:	d4000001 	svc	#0x0
  400278:	d2800020 	mov	x0, #0x1                   	// #1
  40027c:	90000001 	adrp	x1, 400000 <msg_status_len+0x3fffc8>
  400280:	9126f821 	add	x1, x1, #0x9be
  400284:	d2800202 	mov	x2, #0x10                  	// #16
  400288:	d2800808 	mov	x8, #0x40                  	// #64
  40028c:	d4000001 	svc	#0x0
  400290:	90000080 	adrp	x0, 410000 <expected_sum_ascii+0xf59b>
  400294:	912d4000 	add	x0, x0, #0xb50
  400298:	f9400000 	ldr	x0, [x0]
  40029c:	94000097 	bl	4004f8 <print_hex16>
  4002a0:	d2800020 	mov	x0, #0x1                   	// #1
  4002a4:	90000001 	adrp	x1, 400000 <msg_status_len+0x3fffc8>
  4002a8:	91298421 	add	x1, x1, #0xa61
  4002ac:	d2800022 	mov	x2, #0x1                   	// #1
  4002b0:	d2800808 	mov	x8, #0x40                  	// #64
  4002b4:	d4000001 	svc	#0x0
  4002b8:	d2800020 	mov	x0, #0x1                   	// #1
  4002bc:	90000001 	adrp	x1, 400000 <msg_status_len+0x3fffc8>
  4002c0:	91273821 	add	x1, x1, #0x9ce
  4002c4:	d2800202 	mov	x2, #0x10                  	// #16
  4002c8:	d2800808 	mov	x8, #0x40                  	// #64
  4002cc:	d4000001 	svc	#0x0
  4002d0:	90000080 	adrp	x0, 410000 <expected_sum_ascii+0xf59b>
  4002d4:	912d6000 	add	x0, x0, #0xb58
  4002d8:	f9400000 	ldr	x0, [x0]
  4002dc:	94000087 	bl	4004f8 <print_hex16>
  4002e0:	d2800020 	mov	x0, #0x1                   	// #1
  4002e4:	90000001 	adrp	x1, 400000 <msg_status_len+0x3fffc8>
  4002e8:	91298421 	add	x1, x1, #0xa61
  4002ec:	d2800022 	mov	x2, #0x1                   	// #1
  4002f0:	d2800808 	mov	x8, #0x40                  	// #64
  4002f4:	d4000001 	svc	#0x0
  4002f8:	d2800020 	mov	x0, #0x1                   	// #1
  4002fc:	90000001 	adrp	x1, 400000 <msg_status_len+0x3fffc8>
  400300:	91277821 	add	x1, x1, #0x9de
  400304:	d2800262 	mov	x2, #0x13                  	// #19
  400308:	d2800808 	mov	x8, #0x40                  	// #64
  40030c:	d4000001 	svc	#0x0
  400310:	90000080 	adrp	x0, 410000 <expected_sum_ascii+0xf59b>
  400314:	912d8000 	add	x0, x0, #0xb60
  400318:	f9400000 	ldr	x0, [x0]
  40031c:	94000077 	bl	4004f8 <print_hex16>
  400320:	d2800020 	mov	x0, #0x1                   	// #1
  400324:	90000001 	adrp	x1, 400000 <msg_status_len+0x3fffc8>
  400328:	91298421 	add	x1, x1, #0xa61
  40032c:	d2800022 	mov	x2, #0x1                   	// #1
  400330:	d2800808 	mov	x8, #0x40                  	// #64
  400334:	d4000001 	svc	#0x0
  400338:	d2800020 	mov	x0, #0x1                   	// #1
  40033c:	90000001 	adrp	x1, 400000 <msg_status_len+0x3fffc8>
  400340:	9127c421 	add	x1, x1, #0x9f1
  400344:	d28001a2 	mov	x2, #0xd                   	// #13
  400348:	d2800808 	mov	x8, #0x40                  	// #64
  40034c:	d4000001 	svc	#0x0
  400350:	90000094 	adrp	x20, 410000 <expected_sum_ascii+0xf59b>
  400354:	912e0294 	add	x20, x20, #0xb80
  400358:	90000095 	adrp	x21, 410000 <expected_sum_ascii+0xf59b>
  40035c:	912da2b5 	add	x21, x21, #0xb68
  400360:	f94002b5 	ldr	x21, [x21]
  400364:	d2800016 	mov	x22, #0x0                   	// #0
  400368:	eb1502df 	cmp	x22, x21
  40036c:	54000182 	b.cs	40039c <_start+0x2ec>  // b.hs, b.nlast
  400370:	b40000f6 	cbz	x22, 40038c <_start+0x2dc>
  400374:	d2800020 	mov	x0, #0x1                   	// #1
  400378:	90000001 	adrp	x1, 400000 <msg_status_len+0x3fffc8>
  40037c:	91298821 	add	x1, x1, #0xa62
  400380:	d2800022 	mov	x2, #0x1                   	// #1
  400384:	d2800808 	mov	x8, #0x40                  	// #64
  400388:	d4000001 	svc	#0x0
  40038c:	b8767a80 	ldr	w0, [x20, x22, lsl #2]
  400390:	9400004c 	bl	4004c0 <print_u64>
  400394:	910006d6 	add	x22, x22, #0x1
  400398:	17fffff4 	b	400368 <_start+0x2b8>
  40039c:	d2800020 	mov	x0, #0x1                   	// #1
  4003a0:	90000001 	adrp	x1, 400000 <msg_status_len+0x3fffc8>
  4003a4:	91298421 	add	x1, x1, #0xa61
  4003a8:	d2800022 	mov	x2, #0x1                   	// #1
  4003ac:	d2800808 	mov	x8, #0x40                  	// #64
  4003b0:	d4000001 	svc	#0x0
  4003b4:	d2800020 	mov	x0, #0x1                   	// #1
  4003b8:	90000001 	adrp	x1, 400000 <msg_status_len+0x3fffc8>
  4003bc:	9127f821 	add	x1, x1, #0x9fe
  4003c0:	d2800242 	mov	x2, #0x12                  	// #18
  4003c4:	d2800808 	mov	x8, #0x40                  	// #64
  4003c8:	d4000001 	svc	#0x0
  4003cc:	90000080 	adrp	x0, 410000 <expected_sum_ascii+0xf59b>
  4003d0:	912dc000 	add	x0, x0, #0xb70
  4003d4:	f9400000 	ldr	x0, [x0]
  4003d8:	9400003a 	bl	4004c0 <print_u64>
  4003dc:	d2800020 	mov	x0, #0x1                   	// #1
  4003e0:	90000001 	adrp	x1, 400000 <msg_status_len+0x3fffc8>
  4003e4:	91298421 	add	x1, x1, #0xa61
  4003e8:	d2800022 	mov	x2, #0x1                   	// #1
  4003ec:	d2800808 	mov	x8, #0x40                  	// #64
  4003f0:	d4000001 	svc	#0x0
  4003f4:	d2800020 	mov	x0, #0x1                   	// #1
  4003f8:	90000001 	adrp	x1, 400000 <msg_status_len+0x3fffc8>
  4003fc:	91284021 	add	x1, x1, #0xa10
  400400:	d2800182 	mov	x2, #0xc                   	// #12
  400404:	d2800808 	mov	x8, #0x40                  	// #64
  400408:	d4000001 	svc	#0x0
  40040c:	90000080 	adrp	x0, 410000 <expected_sum_ascii+0xf59b>
  400410:	912de000 	add	x0, x0, #0xb78
  400414:	f9400000 	ldr	x0, [x0]
  400418:	9400002a 	bl	4004c0 <print_u64>
  40041c:	d2800020 	mov	x0, #0x1                   	// #1
  400420:	90000001 	adrp	x1, 400000 <msg_status_len+0x3fffc8>
  400424:	91298421 	add	x1, x1, #0xa61
  400428:	d2800022 	mov	x2, #0x1                   	// #1
  40042c:	d2800808 	mov	x8, #0x40                  	// #64
  400430:	d4000001 	svc	#0x0
  400434:	d2800020 	mov	x0, #0x1                   	// #1
  400438:	90000001 	adrp	x1, 400000 <msg_status_len+0x3fffc8>
  40043c:	91287021 	add	x1, x1, #0xa1c
  400440:	d2800542 	mov	x2, #0x2a                  	// #42
  400444:	d2800808 	mov	x8, #0x40                  	// #64
  400448:	d4000001 	svc	#0x0
  40044c:	d2800020 	mov	x0, #0x1                   	// #1
  400450:	90000001 	adrp	x1, 400000 <msg_status_len+0x3fffc8>
  400454:	91291821 	add	x1, x1, #0xa46
  400458:	d2800282 	mov	x2, #0x14                  	// #20
  40045c:	d2800808 	mov	x8, #0x40                  	// #64
  400460:	d4000001 	svc	#0x0
  400464:	b4000113 	cbz	x19, 400484 <_start+0x3d4>
  400468:	d2800020 	mov	x0, #0x1                   	// #1
  40046c:	90000001 	adrp	x1, 400000 <msg_status_len+0x3fffc8>
  400470:	91296821 	add	x1, x1, #0xa5a
  400474:	d2800042 	mov	x2, #0x2                   	// #2
  400478:	d2800808 	mov	x8, #0x40                  	// #64
  40047c:	d4000001 	svc	#0x0
  400480:	14000007 	b	40049c <_start+0x3ec>
  400484:	d2800020 	mov	x0, #0x1                   	// #1
  400488:	90000001 	adrp	x1, 400000 <msg_status_len+0x3fffc8>
  40048c:	91297021 	add	x1, x1, #0xa5c
  400490:	d28000a2 	mov	x2, #0x5                   	// #5
  400494:	d2800808 	mov	x8, #0x40                  	// #64
  400498:	d4000001 	svc	#0x0
  40049c:	d2800020 	mov	x0, #0x1                   	// #1
  4004a0:	90000001 	adrp	x1, 400000 <msg_status_len+0x3fffc8>
  4004a4:	91298421 	add	x1, x1, #0xa61
  4004a8:	d2800022 	mov	x2, #0x1                   	// #1
  4004ac:	d2800808 	mov	x8, #0x40                  	// #64
  4004b0:	d4000001 	svc	#0x0
  4004b4:	d2800000 	mov	x0, #0x0                   	// #0
  4004b8:	d2800ba8 	mov	x8, #0x5d                  	// #93
  4004bc:	d4000001 	svc	#0x0

00000000004004c0 <print_u64>:
  4004c0:	a9bf7bfd 	stp	x29, x30, [sp, #-16]!
  4004c4:	910003fd 	mov	x29, sp
  4004c8:	90000081 	adrp	x1, 410000 <expected_sum_ascii+0xf59b>
  4004cc:	912b8021 	add	x1, x1, #0xae0
  4004d0:	d2800402 	mov	x2, #0x20                  	// #32
  4004d4:	940000a9 	bl	400778 <u64_to_ascii>
  4004d8:	aa0003e2 	mov	x2, x0
  4004dc:	90000081 	adrp	x1, 410000 <expected_sum_ascii+0xf59b>
  4004e0:	912b8021 	add	x1, x1, #0xae0
  4004e4:	d2800020 	mov	x0, #0x1                   	// #1
  4004e8:	d2800808 	mov	x8, #0x40                  	// #64
  4004ec:	d4000001 	svc	#0x0
  4004f0:	a8c17bfd 	ldp	x29, x30, [sp], #16
  4004f4:	d65f03c0 	ret

00000000004004f8 <print_hex16>:
  4004f8:	a9bf7bfd 	stp	x29, x30, [sp, #-16]!
  4004fc:	910003fd 	mov	x29, sp
  400500:	aa0003f7 	mov	x23, x0
  400504:	d2800020 	mov	x0, #0x1                   	// #1
  400508:	90000001 	adrp	x1, 400000 <msg_status_len+0x3fffc8>
  40050c:	91298c21 	add	x1, x1, #0xa63
  400510:	d2800042 	mov	x2, #0x2                   	// #2
  400514:	d2800808 	mov	x8, #0x40                  	// #64
  400518:	d4000001 	svc	#0x0
  40051c:	aa1703e0 	mov	x0, x23
  400520:	90000081 	adrp	x1, 410000 <expected_sum_ascii+0xf59b>
  400524:	912c0021 	add	x1, x1, #0xb00
  400528:	d2800082 	mov	x2, #0x4                   	// #4
  40052c:	940000b9 	bl	400810 <u64_to_hex_fixed>
  400530:	aa0003e2 	mov	x2, x0
  400534:	90000081 	adrp	x1, 410000 <expected_sum_ascii+0xf59b>
  400538:	912c0021 	add	x1, x1, #0xb00
  40053c:	d2800020 	mov	x0, #0x1                   	// #1
  400540:	d2800808 	mov	x8, #0x40                  	// #64
  400544:	d4000001 	svc	#0x0
  400548:	a8c17bfd 	ldp	x29, x30, [sp], #16
  40054c:	d65f03c0 	ret

0000000000400550 <process_metrics>:
  400550:	90000080 	adrp	x0, 410000 <expected_sum_ascii+0xf59b>
  400554:	9129c000 	add	x0, x0, #0xa70
  400558:	90000081 	adrp	x1, 410000 <expected_sum_ascii+0xf59b>
  40055c:	912a4021 	add	x1, x1, #0xa90
  400560:	d2800102 	mov	x2, #0x8                   	// #8
  400564:	d2800003 	mov	x3, #0x0                   	// #0
  400568:	d2800004 	mov	x4, #0x0                   	// #0
  40056c:	d2800005 	mov	x5, #0x0                   	// #0
  400570:	d2800006 	mov	x6, #0x0                   	// #0
  400574:	d2800007 	mov	x7, #0x0                   	// #0
  400578:	b8404408 	ldr	w8, [x0], #4
  40057c:	38401429 	ldrb	w9, [x1], #1
  400580:	7200013f 	tst	w9, #0x1
  400584:	54000060 	b.eq	400590 <process_metrics+0x40>  // b.none
  400588:	91000463 	add	x3, x3, #0x1
  40058c:	8b080084 	add	x4, x4, x8
  400590:	721e013f 	tst	w9, #0x4
  400594:	9a8504a5 	cinc	x5, x5, ne  // ne = any
  400598:	721d013f 	tst	w9, #0x8
  40059c:	9a8604c6 	cinc	x6, x6, ne  // ne = any
  4005a0:	7200013f 	tst	w9, #0x1
  4005a4:	9a8714e7 	cinc	x7, x7, eq  // eq = none
  4005a8:	f1000442 	subs	x2, x2, #0x1
  4005ac:	54fffe61 	b.ne	400578 <process_metrics+0x28>  // b.any
  4005b0:	9ac3088a 	udiv	x10, x4, x3
  4005b4:	9000008b 	adrp	x11, 410000 <expected_sum_ascii+0xf59b>
  4005b8:	912c816b 	add	x11, x11, #0xb20
  4005bc:	f9000163 	str	x3, [x11]
  4005c0:	9000008b 	adrp	x11, 410000 <expected_sum_ascii+0xf59b>
  4005c4:	912ca16b 	add	x11, x11, #0xb28
  4005c8:	f9000164 	str	x4, [x11]
  4005cc:	9000008b 	adrp	x11, 410000 <expected_sum_ascii+0xf59b>
  4005d0:	912cc16b 	add	x11, x11, #0xb30
  4005d4:	f900016a 	str	x10, [x11]
  4005d8:	9000008b 	adrp	x11, 410000 <expected_sum_ascii+0xf59b>
  4005dc:	912ce16b 	add	x11, x11, #0xb38
  4005e0:	f9000165 	str	x5, [x11]
  4005e4:	9000008b 	adrp	x11, 410000 <expected_sum_ascii+0xf59b>
  4005e8:	912d016b 	add	x11, x11, #0xb40
  4005ec:	f9000166 	str	x6, [x11]
  4005f0:	9000008b 	adrp	x11, 410000 <expected_sum_ascii+0xf59b>
  4005f4:	912d216b 	add	x11, x11, #0xb48
  4005f8:	f9000167 	str	x7, [x11]
  4005fc:	92400c6c 	and	x12, x3, #0xf
  400600:	92400cad 	and	x13, x5, #0xf
  400604:	d37cedad 	lsl	x13, x13, #4
  400608:	aa0d018c 	orr	x12, x12, x13
  40060c:	92400ccd 	and	x13, x6, #0xf
  400610:	d378ddad 	lsl	x13, x13, #8
  400614:	aa0d018c 	orr	x12, x12, x13
  400618:	92400ced 	and	x13, x7, #0xf
  40061c:	d374cdad 	lsl	x13, x13, #12
  400620:	aa0d018c 	orr	x12, x12, x13
  400624:	9260bd8c 	and	x12, x12, #0xffffffff0000ffff
  400628:	d37be98d 	lsl	x13, x12, #5
  40062c:	d34bfd8e 	lsr	x14, x12, #11
  400630:	aa0e01ad 	orr	x13, x13, x14
  400634:	92403dad 	and	x13, x13, #0xffff
  400638:	d29fffef 	mov	x15, #0xffff                	// #65535
  40063c:	8a2c01f0 	bic	x16, x15, x12
  400640:	ca0d018e 	eor	x14, x12, x13
  400644:	92403dce 	and	x14, x14, #0xffff
  400648:	9000008b 	adrp	x11, 410000 <expected_sum_ascii+0xf59b>
  40064c:	912d416b 	add	x11, x11, #0xb50
  400650:	f900016c 	str	x12, [x11]
  400654:	9000008b 	adrp	x11, 410000 <expected_sum_ascii+0xf59b>
  400658:	912d616b 	add	x11, x11, #0xb58
  40065c:	f900016d 	str	x13, [x11]
  400660:	9000008b 	adrp	x11, 410000 <expected_sum_ascii+0xf59b>
  400664:	912d816b 	add	x11, x11, #0xb60
  400668:	f900016e 	str	x14, [x11]
  40066c:	aa0303e0 	mov	x0, x3
  400670:	aa0403e1 	mov	x1, x4
  400674:	aa0a03e2 	mov	x2, x10
  400678:	aa0503e3 	mov	x3, x5
  40067c:	aa0603e4 	mov	x4, x6
  400680:	aa0c03e5 	mov	x5, x12
  400684:	aa0e03e6 	mov	x6, x14

0000000000400688 <metrics_done>:
  400688:	d65f03c0 	ret

000000000040068c <convert_valid_values_lut>:
  40068c:	90000080 	adrp	x0, 410000 <expected_sum_ascii+0xf59b>
  400690:	9129c000 	add	x0, x0, #0xa70
  400694:	90000081 	adrp	x1, 410000 <expected_sum_ascii+0xf59b>
  400698:	912a4021 	add	x1, x1, #0xa90
  40069c:	90000082 	adrp	x2, 410000 <expected_sum_ascii+0xf59b>
  4006a0:	912a8042 	add	x2, x2, #0xaa0
  4006a4:	90000083 	adrp	x3, 410000 <expected_sum_ascii+0xf59b>
  4006a8:	912e0063 	add	x3, x3, #0xb80
  4006ac:	d2800104 	mov	x4, #0x8                   	// #8
  4006b0:	d2800005 	mov	x5, #0x0                   	// #0
  4006b4:	d2800006 	mov	x6, #0x0                   	// #0
  4006b8:	5280014a 	mov	w10, #0xa                   	// #10
  4006bc:	b8404407 	ldr	w7, [x0], #4
  4006c0:	38401428 	ldrb	w8, [x1], #1
  4006c4:	7200011f 	tst	w8, #0x1
  4006c8:	540000e0 	b.eq	4006e4 <convert_valid_values_lut+0x58>  // b.none
  4006cc:	1aca08e9 	udiv	w9, w7, w10
  4006d0:	51000529 	sub	w9, w9, #0x1
  4006d4:	b869584b 	ldr	w11, [x2, w9, uxtw #2]
  4006d8:	b800446b 	str	w11, [x3], #4
  4006dc:	910004a5 	add	x5, x5, #0x1
  4006e0:	8b0b00c6 	add	x6, x6, x11
  4006e4:	f1000484 	subs	x4, x4, #0x1
  4006e8:	54fffea1 	b.ne	4006bc <convert_valid_values_lut+0x30>  // b.any
  4006ec:	9000008c 	adrp	x12, 410000 <expected_sum_ascii+0xf59b>
  4006f0:	912da18c 	add	x12, x12, #0xb68
  4006f4:	f9000185 	str	x5, [x12]
  4006f8:	9000008c 	adrp	x12, 410000 <expected_sum_ascii+0xf59b>
  4006fc:	912dc18c 	add	x12, x12, #0xb70
  400700:	f9000186 	str	x6, [x12]
  400704:	aa0503e0 	mov	x0, x5
  400708:	aa0603e1 	mov	x1, x6

000000000040070c <lut_done>:
  40070c:	d65f03c0 	ret

0000000000400710 <sum_first_four_neon>:
  400710:	90000080 	adrp	x0, 410000 <expected_sum_ascii+0xf59b>
  400714:	9129c000 	add	x0, x0, #0xa70
  400718:	3dc00000 	ldr	q0, [x0]
  40071c:	4eb1b801 	addv	s1, v0.4s
  400720:	1e260020 	fmov	w0, s1
  400724:	90000081 	adrp	x1, 410000 <expected_sum_ascii+0xf59b>
  400728:	912de021 	add	x1, x1, #0xb78
  40072c:	f9000020 	str	x0, [x1]

0000000000400730 <neon_int_done>:
  400730:	d65f03c0 	ret

0000000000400734 <normalize_lut_f32_neon>:
  400734:	90000080 	adrp	x0, 410000 <expected_sum_ascii+0xf59b>
  400738:	912b0000 	add	x0, x0, #0xac0
  40073c:	90000081 	adrp	x1, 410000 <expected_sum_ascii+0xf59b>
  400740:	912b4021 	add	x1, x1, #0xad0
  400744:	90000082 	adrp	x2, 410000 <expected_sum_ascii+0xf59b>
  400748:	912e8042 	add	x2, x2, #0xba0
  40074c:	3dc00000 	ldr	q0, [x0]
  400750:	3dc00021 	ldr	q1, [x1]
  400754:	6e21fc02 	fdiv	v2.4s, v0.4s, v1.4s
  400758:	3d800042 	str	q2, [x2]

000000000040075c <neon_float_done>:
  40075c:	d65f03c0 	ret

0000000000400760 <strlen_ascii>:
  400760:	aa0003e1 	mov	x1, x0
  400764:	38401422 	ldrb	w2, [x1], #1
  400768:	35ffffe2 	cbnz	w2, 400764 <strlen_ascii+0x4>
  40076c:	cb000020 	sub	x0, x1, x0
  400770:	d1000400 	sub	x0, x0, #0x1
  400774:	d65f03c0 	ret

0000000000400778 <u64_to_ascii>:
  400778:	f100085f 	cmp	x2, #0x2
  40077c:	54000463 	b.cc	400808 <u64_to_ascii+0x90>  // b.lo, b.ul, b.last
  400780:	aa0103e3 	mov	x3, x1
  400784:	aa0003e4 	mov	x4, x0
  400788:	b50000c4 	cbnz	x4, 4007a0 <u64_to_ascii+0x28>
  40078c:	52800605 	mov	w5, #0x30                  	// #48
  400790:	39000065 	strb	w5, [x3]
  400794:	3900047f 	strb	wzr, [x3, #1]
  400798:	d2800020 	mov	x0, #0x1                   	// #1
  40079c:	d65f03c0 	ret
  4007a0:	8b020025 	add	x5, x1, x2
  4007a4:	d10004a5 	sub	x5, x5, #0x1
  4007a8:	390000bf 	strb	wzr, [x5]
  4007ac:	d2800006 	mov	x6, #0x0                   	// #0
  4007b0:	d2800147 	mov	x7, #0xa                   	// #10
  4007b4:	b4000164 	cbz	x4, 4007e0 <u64_to_ascii+0x68>
  4007b8:	eb0200df 	cmp	x6, x2
  4007bc:	54000262 	b.cs	400808 <u64_to_ascii+0x90>  // b.hs, b.nlast
  4007c0:	9ac70888 	udiv	x8, x4, x7
  4007c4:	9b079109 	msub	x9, x8, x7, x4
  4007c8:	1100c129 	add	w9, w9, #0x30
  4007cc:	d10004a5 	sub	x5, x5, #0x1
  4007d0:	390000a9 	strb	w9, [x5]
  4007d4:	aa0803e4 	mov	x4, x8
  4007d8:	910004c6 	add	x6, x6, #0x1
  4007dc:	17fffff6 	b	4007b4 <u64_to_ascii+0x3c>
  4007e0:	d280000a 	mov	x10, #0x0                   	// #0
  4007e4:	eb06015f 	cmp	x10, x6
  4007e8:	540000a2 	b.cs	4007fc <u64_to_ascii+0x84>  // b.hs, b.nlast
  4007ec:	386a68ab 	ldrb	w11, [x5, x10]
  4007f0:	382a686b 	strb	w11, [x3, x10]
  4007f4:	9100054a 	add	x10, x10, #0x1
  4007f8:	17fffffb 	b	4007e4 <u64_to_ascii+0x6c>
  4007fc:	3826687f 	strb	wzr, [x3, x6]
  400800:	aa0603e0 	mov	x0, x6
  400804:	d65f03c0 	ret
  400808:	d2800000 	mov	x0, #0x0                   	// #0
  40080c:	d65f03c0 	ret

0000000000400810 <u64_to_hex_fixed>:
  400810:	b40002a2 	cbz	x2, 400864 <u64_to_hex_fixed+0x54>
  400814:	f100405f 	cmp	x2, #0x10
  400818:	54000268 	b.hi	400864 <u64_to_hex_fixed+0x54>  // b.pmore
  40081c:	d2800003 	mov	x3, #0x0                   	// #0
  400820:	d37ef444 	lsl	x4, x2, #2
  400824:	d1001084 	sub	x4, x4, #0x4
  400828:	9ac42405 	lsr	x5, x0, x4
  40082c:	92400ca5 	and	x5, x5, #0xf
  400830:	f10028bf 	cmp	x5, #0xa
  400834:	54000063 	b.cc	400840 <u64_to_hex_fixed+0x30>  // b.lo, b.ul, b.last
  400838:	11015ca5 	add	w5, w5, #0x57
  40083c:	14000002 	b	400844 <u64_to_hex_fixed+0x34>
  400840:	1100c0a5 	add	w5, w5, #0x30
  400844:	38236825 	strb	w5, [x1, x3]
  400848:	91000463 	add	x3, x3, #0x1
  40084c:	b4000064 	cbz	x4, 400858 <u64_to_hex_fixed+0x48>
  400850:	d1001084 	sub	x4, x4, #0x4
  400854:	17fffff5 	b	400828 <u64_to_hex_fixed+0x18>
  400858:	3823683f 	strb	wzr, [x1, x3]
  40085c:	aa0303e0 	mov	x0, x3
  400860:	d65f03c0 	ret
  400864:	d2800000 	mov	x0, #0x0                   	// #0
  400868:	d65f03c0 	ret

000000000040086c <parse_u64_checked>:
  40086c:	aa0003e2 	mov	x2, x0
  400870:	aa0103e3 	mov	x3, x1
  400874:	d2800004 	mov	x4, #0x0                   	// #0
  400878:	d2800009 	mov	x9, #0x0                   	// #0
  40087c:	39400045 	ldrb	w5, [x2]
  400880:	34000305 	cbz	w5, 4008e0 <parse_u64_checked+0x74>
  400884:	7100b4bf 	cmp	w5, #0x2d
  400888:	540002c0 	b.eq	4008e0 <parse_u64_checked+0x74>  // b.none
  40088c:	7100acbf 	cmp	w5, #0x2b
  400890:	54000280 	b.eq	4008e0 <parse_u64_checked+0x74>  // b.none
  400894:	38401445 	ldrb	w5, [x2], #1
  400898:	340001c5 	cbz	w5, 4008d0 <parse_u64_checked+0x64>
  40089c:	7100c0bf 	cmp	w5, #0x30
  4008a0:	54000203 	b.cc	4008e0 <parse_u64_checked+0x74>  // b.lo, b.ul, b.last
  4008a4:	7100e4bf 	cmp	w5, #0x39
  4008a8:	540001c8 	b.hi	4008e0 <parse_u64_checked+0x74>  // b.pmore
  4008ac:	d100c0a5 	sub	x5, x5, #0x30
  4008b0:	91000529 	add	x9, x9, #0x1
  4008b4:	cb050066 	sub	x6, x3, x5
  4008b8:	d2800147 	mov	x7, #0xa                   	// #10
  4008bc:	9ac708c6 	udiv	x6, x6, x7
  4008c0:	eb06009f 	cmp	x4, x6
  4008c4:	540000e8 	b.hi	4008e0 <parse_u64_checked+0x74>  // b.pmore
  4008c8:	9b071484 	madd	x4, x4, x7, x5
  4008cc:	17fffff2 	b	400894 <parse_u64_checked+0x28>
  4008d0:	b4000089 	cbz	x9, 4008e0 <parse_u64_checked+0x74>
  4008d4:	d2800020 	mov	x0, #0x1                   	// #1
  4008d8:	aa0403e1 	mov	x1, x4
  4008dc:	d65f03c0 	ret
  4008e0:	d2800000 	mov	x0, #0x0                   	// #0
  4008e4:	d2800001 	mov	x1, #0x0                   	// #0
  4008e8:	d65f03c0 	ret
